

Microchip MPLAB XC8 Assembler V2.50 build 20240725155939 
                                                                                               Fri Dec 12 22:11:01 2025

Microchip MPLAB XC8 C Compiler v2.50 (Free license) build 20240725155939 Og9 
     1                           	processor	18F4550
     2                           	fnconf	rparam,??,?,0
     3                           	pagewidth 120
     4                           	opt	flic
     5                           	psect	idataCOMRAM,global,class=CODE,space=0,delta=1,noexec
     6                           	psect	smallconst,global,reloc=2,class=SMALLCONST,space=0,delta=1,noexec
     7                           	psect	nvCOMRAM,global,class=COMRAM,space=1,delta=1,lowdata,noexec
     8                           	psect	cinit,global,reloc=2,class=CODE,space=0,delta=1
     9                           	psect	bssCOMRAM,global,class=COMRAM,space=1,delta=1,lowdata,noexec
    10                           	psect	dataCOMRAM,global,class=COMRAM,space=1,delta=1,lowdata,noexec
    11                           	psect	cstackBANK0,global,class=BANK0,space=1,delta=1,lowdata,noexec
    12                           	psect	cstackCOMRAM,global,class=COMRAM,space=1,delta=1,lowdata,noexec
    13                           	psect	text0,global,reloc=2,class=CODE,space=0,delta=1
    14                           	psect	text1,global,reloc=2,class=CODE,space=0,delta=1
    15                           	psect	text2,global,reloc=2,class=CODE,space=0,delta=1
    16                           	psect	text3,global,reloc=2,class=CODE,space=0,delta=1
    17                           	psect	text4,global,reloc=2,class=CODE,space=0,delta=1,group=2
    18                           	psect	text5,global,reloc=2,class=CODE,space=0,delta=1,group=2
    19                           	psect	text6,global,reloc=2,class=CODE,space=0,delta=1
    20                           	psect	text7,global,reloc=2,class=CODE,space=0,delta=1
    21                           	psect	text8,global,reloc=2,class=CODE,space=0,delta=1
    22                           	psect	text9,global,reloc=2,class=CODE,space=0,delta=1
    23                           	psect	text10,global,reloc=2,class=CODE,space=0,delta=1
    24                           	psect	text11,global,reloc=2,class=CODE,space=0,delta=1
    25                           	psect	text12,global,reloc=2,class=CODE,space=0,delta=1
    26                           	psect	text13,global,reloc=2,class=CODE,space=0,delta=1
    27                           	psect	text14,global,reloc=2,class=CODE,space=0,delta=1
    28                           	psect	text15,global,reloc=2,class=CODE,space=0,delta=1
    29                           	psect	text16,global,reloc=2,class=CODE,space=0,delta=1
    30                           	psect	text17,global,reloc=2,class=CODE,space=0,delta=1
    31                           	psect	text18,global,reloc=2,class=CODE,space=0,delta=1
    32                           	psect	text19,global,reloc=2,class=CODE,space=0,delta=1
    33                           	psect	text20,global,reloc=2,class=CODE,space=0,delta=1
    34                           	psect	text21,global,reloc=2,class=CODE,space=0,delta=1
    35                           	psect	intcode,global,reloc=2,class=CODE,space=0,delta=1
    36                           	psect	intcode_body,global,reloc=2,class=CODE,space=0,delta=1
    37                           	psect	text23,global,reloc=2,class=CODE,space=0,delta=1
    38                           	psect	text24,global,reloc=2,class=CODE,space=0,delta=1,group=1
    39                           	psect	text25,global,reloc=2,class=CODE,space=0,delta=1
    40                           	psect	text26,global,reloc=2,class=CODE,space=0,delta=1,group=2
    41                           	psect	text27,global,reloc=2,class=CODE,space=0,delta=1,group=2
    42                           	psect	text28,global,reloc=2,class=CODE,space=0,delta=1
    43                           	psect	text29,global,reloc=2,class=CODE,space=0,delta=1
    44                           	psect	text30,global,reloc=2,class=CODE,space=0,delta=1
    45                           	psect	text31,global,reloc=2,class=CODE,space=0,delta=1
    46                           	psect	text32,global,reloc=2,class=CODE,space=0,delta=1
    47                           	psect	text33,global,reloc=2,class=CODE,space=0,delta=1
    48                           	psect	text34,global,reloc=2,class=CODE,space=0,delta=1
    49                           	psect	text35,global,reloc=2,class=CODE,space=0,delta=1
    50                           	psect	text36,global,reloc=2,class=CODE,space=0,delta=1
    51                           	psect	text37,global,reloc=2,class=CODE,space=0,delta=1
    52                           	psect	text38,global,reloc=2,class=CODE,space=0,delta=1
    53                           	psect	text39,global,reloc=2,class=CODE,space=0,delta=1
    54                           	psect	text40,global,reloc=2,class=CODE,space=0,delta=1
    55                           	psect	text41,global,reloc=2,class=CODE,space=0,delta=1
    56                           	psect	text42,global,reloc=2,class=CODE,space=0,delta=1
    57                           	psect	text43,global,reloc=2,class=CODE,space=0,delta=1
    58                           	psect	intsave_regs,global,class=BIGRAM,space=1,delta=1,noexec
    59                           	psect	rparam,global,class=COMRAM,space=1,delta=1,noexec
    60                           	psect	temp,global,ovrld,common,class=COMRAM,space=1,delta=1,lowdata
    61                           	psect	idloc,global,abs,ovrld,class=IDLOC,space=5,delta=1,noexec
    62                           	psect	config,global,abs,ovrld,class=CONFIG,space=4,delta=1,noexec
    63   000000                     
    64                           ; Generated 25/07/2024 GMT
    65                           ; 
    66                           ; Copyright © 2024, Microchip Technology Inc. and its subsidiaries ("Microchip")
    67                           ; All rights reserved.
    68                           ; 
    69                           ; This software is developed by Microchip Technology Inc. and its subsidiaries ("Microch
      +                          ip").
    70                           ; 
    71                           ; Redistribution and use in source and binary forms, with or without modification, are
    72                           ; permitted provided that the following conditions are met:
    73                           ; 
    74                           ;     1. Redistributions of source code must retain the above copyright notice, this lis
      +                          t of
    75                           ;        conditions and the following disclaimer.
    76                           ; 
    77                           ;     2. Redistributions in binary form must reproduce the above copyright notice, this 
      +                          list
    78                           ;        of conditions and the following disclaimer in the documentation and/or other
    79                           ;        materials provided with the distribution. Publication is not required when
    80                           ;        this file is used in an embedded application.
    81                           ; 
    82                           ;     3. Microchip's name may not be used to endorse or promote products derived from th
      +                          is
    83                           ;        software without specific prior written permission.
    84                           ; 
    85                           ; THIS SOFTWARE IS PROVIDED BY MICROCHIP "AS IS" AND ANY EXPRESS OR IMPLIED WARRANTIES,
    86                           ; INCLUDING, BUT NOT LIMITED TO, THE IMPLIED WARRANTIES OF MERCHANTABILITY AND FITNESS F
      +                          OR
    87                           ; PURPOSE ARE DISCLAIMED.  IN NO EVENT SHALL MICROCHIP BE LIABLE FOR ANY DIRECT, INDIREC
      +                          T,
    88                           ; INCIDENTAL, SPECIAL, EXEMPLARY, OR CONSEQUENTIAL DAMAGES (INCLUDING BUT NOT LIMITED TO
    89                           ; PROCUREMENT OF SUBSTITUTE GOODS OR SERVICES; LOSS OF USE, DATA OR PROFITS; OR BUSINESS
    90                           ; INTERRUPTION) HOWSOEVER CAUSED AND ON ANY THEORY OF LIABILITY, WHETHER IN CONTRACT, ST
      +                          RICT
    91                           ; LIABILITY, OR TORT (INCLUDING NEGLIGENCE OR OTHERWISE) ARISING IN ANY WAY OUT OF THE U
      +                          SE OF
    92                           ; THIS SOFTWARE, EVEN IF ADVISED OF THE POSSIBILITY OF SUCH DAMAGE.
    93                           ; 
    94                           ; 
    95                           ; Code-generator required, PIC18F4550 Definitions
    96                           ; 
    97                           ; SFR Addresses
    98   000FE0                     bsr             equ	4064
    99   000FE9                     fsr0            equ	4073
   100   000FEA                     fsr0h           equ	4074
   101   000FE9                     fsr0l           equ	4073
   102   000FE1                     fsr1            equ	4065
   103   000FE2                     fsr1h           equ	4066
   104   000FE1                     fsr1l           equ	4065
   105   000FD9                     fsr2            equ	4057
   106   000FDA                     fsr2h           equ	4058
   107   000FD9                     fsr2l           equ	4057
   108   000FEF                     indf0           equ	4079
   109   000FE7                     indf1           equ	4071
   110   000FDF                     indf2           equ	4063
   111   000FF2                     intcon          equ	4082
   112   000000                     nvmcon          equ	0
   113   000FF9                     pcl             equ	4089
   114   000FFA                     pclath          equ	4090
   115   000FFB                     pclatu          equ	4091
   116   000FEB                     plusw0          equ	4075
   117   000FE3                     plusw1          equ	4067
   118   000FDB                     plusw2          equ	4059
   119   000FED                     postdec0        equ	4077
   120   000FE5                     postdec1        equ	4069
   121   000FDD                     postdec2        equ	4061
   122   000FEE                     postinc0        equ	4078
   123   000FE6                     postinc1        equ	4070
   124   000FDE                     postinc2        equ	4062
   125   000FEC                     preinc0         equ	4076
   126   000FE4                     preinc1         equ	4068
   127   000FDC                     preinc2         equ	4060
   128   000FF3                     prod            equ	4083
   129   000FF4                     prodh           equ	4084
   130   000FF3                     prodl           equ	4083
   131   000FD8                     status          equ	4056
   132   000FF5                     tablat          equ	4085
   133   000FF6                     tblptr          equ	4086
   134   000FF7                     tblptrh         equ	4087
   135   000FF6                     tblptrl         equ	4086
   136   000FF8                     tblptru         equ	4088
   137   000FFD                     tosl            equ	4093
   138   000FE8                     wreg            equ	4072
   139   000F62                     SPPDATA         equ	3938	;# 
   140   000F63                     SPPCFG          equ	3939	;# 
   141   000F64                     SPPEPS          equ	3940	;# 
   142   000F65                     SPPCON          equ	3941	;# 
   143   000F66                     UFRM            equ	3942	;# 
   144   000F66                     UFRML           equ	3942	;# 
   145   000F67                     UFRMH           equ	3943	;# 
   146   000F68                     UIR             equ	3944	;# 
   147   000F69                     UIE             equ	3945	;# 
   148   000F6A                     UEIR            equ	3946	;# 
   149   000F6B                     UEIE            equ	3947	;# 
   150   000F6C                     USTAT           equ	3948	;# 
   151   000F6D                     UCON            equ	3949	;# 
   152   000F6E                     UADDR           equ	3950	;# 
   153   000F6F                     UCFG            equ	3951	;# 
   154   000F70                     UEP0            equ	3952	;# 
   155   000F71                     UEP1            equ	3953	;# 
   156   000F72                     UEP2            equ	3954	;# 
   157   000F73                     UEP3            equ	3955	;# 
   158   000F74                     UEP4            equ	3956	;# 
   159   000F75                     UEP5            equ	3957	;# 
   160   000F76                     UEP6            equ	3958	;# 
   161   000F77                     UEP7            equ	3959	;# 
   162   000F78                     UEP8            equ	3960	;# 
   163   000F79                     UEP9            equ	3961	;# 
   164   000F7A                     UEP10           equ	3962	;# 
   165   000F7B                     UEP11           equ	3963	;# 
   166   000F7C                     UEP12           equ	3964	;# 
   167   000F7D                     UEP13           equ	3965	;# 
   168   000F7E                     UEP14           equ	3966	;# 
   169   000F7F                     UEP15           equ	3967	;# 
   170   000F80                     PORTA           equ	3968	;# 
   171   000F81                     PORTB           equ	3969	;# 
   172   000F82                     PORTC           equ	3970	;# 
   173   000F83                     PORTD           equ	3971	;# 
   174   000F84                     PORTE           equ	3972	;# 
   175   000F89                     LATA            equ	3977	;# 
   176   000F8A                     LATB            equ	3978	;# 
   177   000F8B                     LATC            equ	3979	;# 
   178   000F8C                     LATD            equ	3980	;# 
   179   000F8D                     LATE            equ	3981	;# 
   180   000F92                     TRISA           equ	3986	;# 
   181   000F92                     DDRA            equ	3986	;# 
   182   000F93                     TRISB           equ	3987	;# 
   183   000F93                     DDRB            equ	3987	;# 
   184   000F94                     TRISC           equ	3988	;# 
   185   000F94                     DDRC            equ	3988	;# 
   186   000F95                     TRISD           equ	3989	;# 
   187   000F95                     DDRD            equ	3989	;# 
   188   000F96                     TRISE           equ	3990	;# 
   189   000F96                     DDRE            equ	3990	;# 
   190   000F9B                     OSCTUNE         equ	3995	;# 
   191   000F9D                     PIE1            equ	3997	;# 
   192   000F9E                     PIR1            equ	3998	;# 
   193   000F9F                     IPR1            equ	3999	;# 
   194   000FA0                     PIE2            equ	4000	;# 
   195   000FA1                     PIR2            equ	4001	;# 
   196   000FA2                     IPR2            equ	4002	;# 
   197   000FA6                     EECON1          equ	4006	;# 
   198   000FA7                     EECON2          equ	4007	;# 
   199   000FA8                     EEDATA          equ	4008	;# 
   200   000FA9                     EEADR           equ	4009	;# 
   201   000FAB                     RCSTA           equ	4011	;# 
   202   000FAB                     RCSTA1          equ	4011	;# 
   203   000FAC                     TXSTA           equ	4012	;# 
   204   000FAC                     TXSTA1          equ	4012	;# 
   205   000FAD                     TXREG           equ	4013	;# 
   206   000FAD                     TXREG1          equ	4013	;# 
   207   000FAE                     RCREG           equ	4014	;# 
   208   000FAE                     RCREG1          equ	4014	;# 
   209   000FAF                     SPBRG           equ	4015	;# 
   210   000FAF                     SPBRG1          equ	4015	;# 
   211   000FB0                     SPBRGH          equ	4016	;# 
   212   000FB1                     T3CON           equ	4017	;# 
   213   000FB2                     TMR3            equ	4018	;# 
   214   000FB2                     TMR3L           equ	4018	;# 
   215   000FB3                     TMR3H           equ	4019	;# 
   216   000FB4                     CMCON           equ	4020	;# 
   217   000FB5                     CVRCON          equ	4021	;# 
   218   000FB6                     ECCP1AS         equ	4022	;# 
   219   000FB6                     CCP1AS          equ	4022	;# 
   220   000FB7                     ECCP1DEL        equ	4023	;# 
   221   000FB7                     CCP1DEL         equ	4023	;# 
   222   000FB8                     BAUDCON         equ	4024	;# 
   223   000FB8                     BAUDCTL         equ	4024	;# 
   224   000FBA                     CCP2CON         equ	4026	;# 
   225   000FBB                     CCPR2           equ	4027	;# 
   226   000FBB                     CCPR2L          equ	4027	;# 
   227   000FBC                     CCPR2H          equ	4028	;# 
   228   000FBD                     CCP1CON         equ	4029	;# 
   229   000FBD                     ECCP1CON        equ	4029	;# 
   230   000FBE                     CCPR1           equ	4030	;# 
   231   000FBE                     CCPR1L          equ	4030	;# 
   232   000FBF                     CCPR1H          equ	4031	;# 
   233   000FC0                     ADCON2          equ	4032	;# 
   234   000FC1                     ADCON1          equ	4033	;# 
   235   000FC2                     ADCON0          equ	4034	;# 
   236   000FC3                     ADRES           equ	4035	;# 
   237   000FC3                     ADRESL          equ	4035	;# 
   238   000FC4                     ADRESH          equ	4036	;# 
   239   000FC5                     SSPCON2         equ	4037	;# 
   240   000FC6                     SSPCON1         equ	4038	;# 
   241   000FC7                     SSPSTAT         equ	4039	;# 
   242   000FC8                     SSPADD          equ	4040	;# 
   243   000FC9                     SSPBUF          equ	4041	;# 
   244   000FCA                     T2CON           equ	4042	;# 
   245   000FCB                     PR2             equ	4043	;# 
   246   000FCB                     MEMCON          equ	4043	;# 
   247   000FCC                     TMR2            equ	4044	;# 
   248   000FCD                     T1CON           equ	4045	;# 
   249   000FCE                     TMR1            equ	4046	;# 
   250   000FCE                     TMR1L           equ	4046	;# 
   251   000FCF                     TMR1H           equ	4047	;# 
   252   000FD0                     RCON            equ	4048	;# 
   253   000FD1                     WDTCON          equ	4049	;# 
   254   000FD2                     HLVDCON         equ	4050	;# 
   255   000FD2                     LVDCON          equ	4050	;# 
   256   000FD3                     OSCCON          equ	4051	;# 
   257   000FD5                     T0CON           equ	4053	;# 
   258   000FD6                     TMR0            equ	4054	;# 
   259   000FD6                     TMR0L           equ	4054	;# 
   260   000FD7                     TMR0H           equ	4055	;# 
   261   000FD8                     STATUS          equ	4056	;# 
   262   000FD9                     FSR2            equ	4057	;# 
   263   000FD9                     FSR2L           equ	4057	;# 
   264   000FDA                     FSR2H           equ	4058	;# 
   265   000FDB                     PLUSW2          equ	4059	;# 
   266   000FDC                     PREINC2         equ	4060	;# 
   267   000FDD                     POSTDEC2        equ	4061	;# 
   268   000FDE                     POSTINC2        equ	4062	;# 
   269   000FDF                     INDF2           equ	4063	;# 
   270   000FE0                     BSR             equ	4064	;# 
   271   000FE1                     FSR1            equ	4065	;# 
   272   000FE1                     FSR1L           equ	4065	;# 
   273   000FE2                     FSR1H           equ	4066	;# 
   274   000FE3                     PLUSW1          equ	4067	;# 
   275   000FE4                     PREINC1         equ	4068	;# 
   276   000FE5                     POSTDEC1        equ	4069	;# 
   277   000FE6                     POSTINC1        equ	4070	;# 
   278   000FE7                     INDF1           equ	4071	;# 
   279   000FE8                     WREG            equ	4072	;# 
   280   000FE9                     FSR0            equ	4073	;# 
   281   000FE9                     FSR0L           equ	4073	;# 
   282   000FEA                     FSR0H           equ	4074	;# 
   283   000FEB                     PLUSW0          equ	4075	;# 
   284   000FEC                     PREINC0         equ	4076	;# 
   285   000FED                     POSTDEC0        equ	4077	;# 
   286   000FEE                     POSTINC0        equ	4078	;# 
   287   000FEF                     INDF0           equ	4079	;# 
   288   000FF0                     INTCON3         equ	4080	;# 
   289   000FF1                     INTCON2         equ	4081	;# 
   290   000FF2                     INTCON          equ	4082	;# 
   291   000FF3                     PROD            equ	4083	;# 
   292   000FF3                     PRODL           equ	4083	;# 
   293   000FF4                     PRODH           equ	4084	;# 
   294   000FF5                     TABLAT          equ	4085	;# 
   295   000FF6                     TBLPTR          equ	4086	;# 
   296   000FF6                     TBLPTRL         equ	4086	;# 
   297   000FF7                     TBLPTRH         equ	4087	;# 
   298   000FF8                     TBLPTRU         equ	4088	;# 
   299   000FF9                     PCLAT           equ	4089	;# 
   300   000FF9                     PC              equ	4089	;# 
   301   000FF9                     PCL             equ	4089	;# 
   302   000FFA                     PCLATH          equ	4090	;# 
   303   000FFB                     PCLATU          equ	4091	;# 
   304   000FFC                     STKPTR          equ	4092	;# 
   305   000FFD                     TOS             equ	4093	;# 
   306   000FFD                     TOSL            equ	4093	;# 
   307   000FFE                     TOSH            equ	4094	;# 
   308   000FFF                     TOSU            equ	4095	;# 
   309                           
   310                           	psect	idataCOMRAM
   311   00197E                     __pidataCOMRAM:
   312                           	callstack 0
   313                           
   314                           ;initializer for _interfaz
   315   00197E  08                 	db	8
   316                           
   317                           ;initializer for _Marco
   318   00197F  1F                 	db	31
   319   001980  11                 	db	17
   320   001981  11                 	db	17
   321   001982  11                 	db	17
   322   001983  11                 	db	17
   323   001984  11                 	db	17
   324   001985  11                 	db	17
   325   001986  1F                 	db	31
   326                           
   327                           ;initializer for _Estrella
   328   001987  04                 	db	4
   329   001988  0E                 	db	14
   330   001989  1F                 	db	31
   331   00198A  0E                 	db	14
   332   00198B  1F                 	db	31
   333   00198C  0E                 	db	14
   334   00198D  04                 	db	4
   335   00198E  00                 	db	0
   336                           
   337                           	psect	smallconst
   338   000800                     __psmallconst:
   339                           	callstack 0
   340   000800  00                 	db	0
   341   000801                     _dpowers:
   342                           	callstack 0
   343   000801  0001               	dw	1
   344   000803  000A               	dw	10
   345   000805  0064               	dw	100
   346   000807  03E8               	dw	1000
   347   000809  2710               	dw	10000
   348   00080B                     __end_of_dpowers:
   349                           	callstack 0
   350   00080B                     STR_11:
   351   00080B  56                 	db	86	;'V'
   352   00080C  61                 	db	97	;'a'
   353   00080D  6C                 	db	108	;'l'
   354   00080E  6F                 	db	111	;'o'
   355   00080F  72                 	db	114	;'r'
   356   000810  20                 	db	32
   357   000811  64                 	db	100	;'d'
   358   000812  65                 	db	101	;'e'
   359   000813  6C                 	db	108	;'l'
   360   000814  20                 	db	32
   361   000815  41                 	db	65	;'A'
   362   000816  44                 	db	68	;'D'
   363   000817  43                 	db	67	;'C'
   364   000818  3A                 	db	58	;':'
   365   000819  25                 	db	37
   366   00081A  64                 	db	100	;'d'
   367   00081B  0D                 	db	13
   368   00081C  0A                 	db	10
   369   00081D  00                 	db	0
   370   00081E                     STR_16:
   371   00081E  50                 	db	80	;'P'
   372   00081F  69                 	db	105	;'i'
   373   000820  65                 	db	101	;'e'
   374   000821  7A                 	db	122	;'z'
   375   000822  61                 	db	97	;'a'
   376   000823  73                 	db	115	;'s'
   377   000824  20                 	db	32
   378   000825  61                 	db	97	;'a'
   379   000826  20                 	db	32
   380   000827  63                 	db	99	;'c'
   381   000828  6F                 	db	111	;'o'
   382   000829  6E                 	db	110	;'n'
   383   00082A  74                 	db	116	;'t'
   384   00082B  61                 	db	97	;'a'
   385   00082C  72                 	db	114	;'r'
   386   00082D  3A                 	db	58	;':'
   387   00082E  00                 	db	0
   388   00082F                     STR_7:
   389   00082F  43                 	db	67	;'C'
   390   000830  75                 	db	117	;'u'
   391   000831  65                 	db	101	;'e'
   392   000832  6E                 	db	110	;'n'
   393   000833  74                 	db	116	;'t'
   394   000834  61                 	db	97	;'a'
   395   000835  20                 	db	32
   396   000836  43                 	db	67	;'C'
   397   000837  75                 	db	117	;'u'
   398   000838  6D                 	db	109	;'m'
   399   000839  70                 	db	112	;'p'
   400   00083A  6C                 	db	108	;'l'
   401   00083B  69                 	db	105	;'i'
   402   00083C  64                 	db	100	;'d'
   403   00083D  61                 	db	97	;'a'
   404   00083E  00                 	db	0
   405   00083F                     STR_8:
   406   00083F  20                 	db	32
   407   000840  20                 	db	32
   408   000841  20                 	db	32
   409   000842  50                 	db	80	;'P'
   410   000843  72                 	db	114	;'r'
   411   000844  65                 	db	101	;'e'
   412   000845  73                 	db	115	;'s'
   413   000846  69                 	db	105	;'i'
   414   000847  6F                 	db	111	;'o'
   415   000848  6E                 	db	110	;'n'
   416   000849  65                 	db	101	;'e'
   417   00084A  20                 	db	32
   418   00084B  4F                 	db	79	;'O'
   419   00084C  4B                 	db	75	;'K'
   420   00084D  00                 	db	0
   421   00084E                     STR_10:
   422   00084E  20                 	db	32
   423   00084F  20                 	db	32
   424   000850  20                 	db	32
   425   000851  45                 	db	69	;'E'
   426   000852  4D                 	db	77	;'M'
   427   000853  45                 	db	69	;'E'
   428   000854  52                 	db	82	;'R'
   429   000855  47                 	db	71	;'G'
   430   000856  45                 	db	69	;'E'
   431   000857  4E                 	db	78	;'N'
   432   000858  43                 	db	67	;'C'
   433   000859  49                 	db	73	;'I'
   434   00085A  41                 	db	65	;'A'
   435   00085B  00                 	db	0
   436   00085C                     STR_14:
   437   00085C  20                 	db	32
   438   00085D  42                 	db	66	;'B'
   439   00085E  69                 	db	105	;'i'
   440   00085F  65                 	db	101	;'e'
   441   000860  6E                 	db	110	;'n'
   442   000861  76                 	db	118	;'v'
   443   000862  65                 	db	101	;'e'
   444   000863  6E                 	db	110	;'n'
   445   000864  69                 	db	105	;'i'
   446   000865  64                 	db	100	;'d'
   447   000866  6F                 	db	111	;'o'
   448   000867  20                 	db	32
   449   000868  00                 	db	0
   450   000869                     STR_2:
   451   000869  20                 	db	32
   452   00086A  20                 	db	32
   453   00086B  20                 	db	32
   454   00086C  20                 	db	32
   455   00086D  20                 	db	32
   456   00086E  45                 	db	69	;'E'
   457   00086F  4E                 	db	78	;'N'
   458   000870  45                 	db	69	;'E'
   459   000871  52                 	db	82	;'R'
   460   000872  47                 	db	71	;'G'
   461   000873  49                 	db	73	;'I'
   462   000874  41                 	db	65	;'A'
   463   000875  00                 	db	0
   464   000876                     STR_9:
   465   000876  20                 	db	32
   466   000877  20                 	db	32
   467   000878  20                 	db	32
   468   000879  50                 	db	80	;'P'
   469   00087A  41                 	db	65	;'A'
   470   00087B  52                 	db	82	;'R'
   471   00087C  41                 	db	65	;'A'
   472   00087D  44                 	db	68	;'D'
   473   00087E  41                 	db	65	;'A'
   474   00087F  20                 	db	32
   475   000880  44                 	db	68	;'D'
   476   000881  45                 	db	69	;'E'
   477   000882  00                 	db	0
   478   000883                     STR_1:
   479   000883  20                 	db	32
   480   000884  20                 	db	32
   481   000885  20                 	db	32
   482   000886  20                 	db	32
   483   000887  46                 	db	70	;'F'
   484   000888  41                 	db	65	;'A'
   485   000889  4C                 	db	76	;'L'
   486   00088A  4C                 	db	76	;'L'
   487   00088B  41                 	db	65	;'A'
   488   00088C  20                 	db	32
   489   00088D  44                 	db	68	;'D'
   490   00088E  45                 	db	69	;'E'
   491   00088F  00                 	db	0
   492   000890                     STR_3:
   493   000890  20                 	db	32
   494   000891  20                 	db	32
   495   000892  20                 	db	32
   496   000893  20                 	db	32
   497   000894  52                 	db	82	;'R'
   498   000895  45                 	db	69	;'E'
   499   000896  53                 	db	83	;'S'
   500   000897  45                 	db	69	;'E'
   501   000898  54                 	db	84	;'T'
   502   000899  20                 	db	32
   503   00089A  44                 	db	68	;'D'
   504   00089B  45                 	db	69	;'E'
   505   00089C  00                 	db	0
   506   00089D                     STR_4:
   507   00089D  20                 	db	32
   508   00089E  20                 	db	32
   509   00089F  20                 	db	32
   510   0008A0  20                 	db	32
   511   0008A1  20                 	db	32
   512   0008A2  55                 	db	85	;'U'
   513   0008A3  53                 	db	83	;'S'
   514   0008A4  55                 	db	85	;'U'
   515   0008A5  41                 	db	65	;'A'
   516   0008A6  52                 	db	82	;'R'
   517   0008A7  49                 	db	73	;'I'
   518   0008A8  4F                 	db	79	;'O'
   519   0008A9  00                 	db	0
   520   0008AA                     STR_5:
   521   0008AA  46                 	db	70	;'F'
   522   0008AB  61                 	db	97	;'a'
   523   0008AC  6C                 	db	108	;'l'
   524   0008AD  74                 	db	116	;'t'
   525   0008AE  61                 	db	97	;'a'
   526   0008AF  6E                 	db	110	;'n'
   527   0008B0  74                 	db	116	;'t'
   528   0008B1  65                 	db	101	;'e'
   529   0008B2  73                 	db	115	;'s'
   530   0008B3  3A                 	db	58	;':'
   531   0008B4  20                 	db	32
   532   0008B5  00                 	db	0
   533   0008B6                     STR_15:
   534   0008B6  20                 	db	32
   535   0008B7  20                 	db	32
   536   0008B8  4F                 	db	79	;'O'
   537   0008B9  70                 	db	112	;'p'
   538   0008BA  65                 	db	101	;'e'
   539   0008BB  72                 	db	114	;'r'
   540   0008BC  61                 	db	97	;'a'
   541   0008BD  72                 	db	114	;'r'
   542   0008BE  69                 	db	105	;'i'
   543   0008BF  6F                 	db	111	;'o'
   544   0008C0  20                 	db	32
   545   0008C1  00                 	db	0
   546   0008C2                     STR_6:
   547   0008C2  4F                 	db	79	;'O'
   548   0008C3  62                 	db	98	;'b'
   549   0008C4  6A                 	db	106	;'j'
   550   0008C5  65                 	db	101	;'e'
   551   0008C6  74                 	db	116	;'t'
   552   0008C7  69                 	db	105	;'i'
   553   0008C8  76                 	db	118	;'v'
   554   0008C9  6F                 	db	111	;'o'
   555   0008CA  3A                 	db	58	;':'
   556   0008CB  20                 	db	32
   557   0008CC  00                 	db	0
   558   0008CD                     STR_18:
   559   0008CD  54                 	db	84	;'T'
   560   0008CE  72                 	db	114	;'r'
   561   0008CF  79                 	db	121	;'y'
   562   0008D0  20                 	db	32
   563   0008D1  61                 	db	97	;'a'
   564   0008D2  67                 	db	103	;'g'
   565   0008D3  61                 	db	97	;'a'
   566   0008D4  69                 	db	105	;'i'
   567   0008D5  6E                 	db	110	;'n'
   568   0008D6  00                 	db	0
   569   0008D7                     STR_17:
   570   0008D7  45                 	db	69	;'E'
   571   0008D8  72                 	db	114	;'r'
   572   0008D9  72                 	db	114	;'r'
   573   0008DA  6F                 	db	111	;'o'
   574   0008DB  72                 	db	114	;'r'
   575   0008DC  00                 	db	0
   576   000876                     STR_12          equ	STR_9
   577   00084E                     STR_13          equ	STR_10
   578   0008DD  00                 	db	0	; dummy byte at the end
   579   000002                     __activetblptr  equ	2
   580                           
   581                           	psect	nvCOMRAM
   582   000046                     __pnvCOMRAM:
   583                           	callstack 0
   584   000046                     _pulsadorListo:
   585                           	callstack 0
   586   000046                     	ds	1
   587   007D61                     _TRMT           set	32097
   588   007E11                     _GO_DONE        set	32273
   589   007E10                     _ADON           set	32272
   590   007C0F                     _RB7            set	31759
   591   007C0E                     _RB6            set	31758
   592   007C0D                     _RB5            set	31757
   593   007C0C                     _RB4            set	31756
   594   007C11                     _RC1            set	31761
   595   007E81                     _POR            set	32385
   596   007F97                     _GIE            set	32663
   597   007F96                     _PEIE           set	32662
   598   007CED                     _RCIE           set	31981
   599   007CF5                     _RCIF           set	31989
   600   007F93                     _RBIE           set	32659
   601   007F90                     _RBIF           set	32656
   602   007F8F                     _RBPU           set	32655
   603   007E68                     _TMR1ON         set	32360
   604   007CE8                     _TMR1IE         set	31976
   605   007CF0                     _TMR1IF         set	31984
   606   007EAF                     _TMR0ON         set	32431
   607   007F95                     _TMR0IE         set	32661
   608   007F92                     _TMR0IF         set	32658
   609   007C95                     _TRISA5         set	31893
   610   007CA1                     _TRISC1         set	31905
   611   007CA7                     _TRISC7         set	31911
   612   007CA6                     _TRISC6         set	31910
   613   007C5A                     _LATC2          set	31834
   614   007CA2                     _TRISC2         set	31906
   615   007C94                     _TRISA4         set	31892
   616   007C4B                     _LATA3          set	31819
   617   007C93                     _TRISA3         set	31891
   618   007C4A                     _LATA2          set	31818
   619   007C92                     _TRISA2         set	31890
   620   007C49                     _LATA1          set	31817
   621   007C91                     _TRISA1         set	31889
   622   007C4D                     _LATA5          set	31821
   623   007C4C                     _LATA4          set	31820
   624   000FC3                     _ADRES          set	4035
   625   000FCE                     _TMR1           set	4046
   626   000FD6                     _TMR0           set	4054
   627   000FAD                     _TXREG          set	4013
   628   000F81                     _PORTB          set	3969
   629   000FAE                     _RCREG          set	4014
   630   000FAB                     _RCSTAbits      set	4011
   631   000F8A                     _LATB           set	3978
   632   000F93                     _TRISB          set	3987
   633   000FCD                     _T1CON          set	4045
   634   000FD5                     _T0CON          set	4053
   635   000FAF                     _SPBRG          set	4015
   636   000FB8                     _BAUDCON        set	4024
   637   000FAB                     _RCSTA          set	4011
   638   000FAC                     _TXSTA          set	4012
   639   000F95                     _TRISD          set	3989
   640   000F8D                     _LATE           set	3981
   641   000F96                     _TRISE          set	3990
   642   000FC0                     _ADCON2         set	4032
   643   000FC2                     _ADCON0         set	4034
   644   000FC1                     _ADCON1         set	4033
   645   000F8C                     _LATD           set	3980
   646                           
   647                           ; #config settings
   648                           
   649                           	psect	cinit
   650   001716                     __pcinit:
   651                           	callstack 0
   652   001716                     start_initialization:
   653                           	callstack 0
   654   001716                     __initialization:
   655                           	callstack 0
   656                           
   657                           ; Initialize objects allocated to COMRAM (17 bytes)
   658                           ; load TBLPTR registers with __pidataCOMRAM
   659   001716  0E7E               	movlw	low __pidataCOMRAM
   660   001718  6EF6               	movwf	tblptrl,c
   661   00171A  0E19               	movlw	high __pidataCOMRAM
   662   00171C  6EF7               	movwf	tblptrh,c
   663   00171E  0E00               	movlw	low (__pidataCOMRAM shr (0+16))
   664   001720  6EF8               	movwf	tblptru,c
   665   001722  EE00  F035         	lfsr	0,__pdataCOMRAM
   666   001726  EE10 F011          	lfsr	1,17
   667   00172A                     copy_data0:
   668   00172A  0009               	tblrd		*+
   669   00172C  CFF5 FFEE          	movff	tablat,postinc0
   670   001730  50E5               	movf	postdec1,w,c
   671   001732  50E1               	movf	fsr1l,w,c
   672   001734  E1FA               	bnz	copy_data0
   673                           
   674                           ; Clear objects allocated to COMRAM (18 bytes)
   675   001736  EE00  F023         	lfsr	0,__pbssCOMRAM
   676   00173A  0E12               	movlw	18
   677   00173C                     clear_0:
   678   00173C  6AEE               	clrf	postinc0,c
   679   00173E  06E8               	decf	wreg,f,c
   680   001740  E1FD               	bnz	clear_0
   681   001742                     end_of_initialization:
   682                           	callstack 0
   683   001742                     __end_of__initialization:
   684                           	callstack 0
   685   001742  9047               	bcf	int$flags,0,c	;clear compiler interrupt flag (level 1)
   686   001744  9247               	bcf	int$flags,1,c	;clear compiler interrupt flag (level 2)
   687   001746  0E00               	movlw	low (__Lmediumconst shr (0+16))
   688   001748  6EF8               	movwf	tblptru,c
   689   00174A  0100               	movlb	0
   690   00174C  EF1A  F006         	goto	_main	;jump to C main() function
   691                           
   692                           	psect	bssCOMRAM
   693   000023                     __pbssCOMRAM:
   694                           	callstack 0
   695   000023                     _adcValor:
   696                           	callstack 0
   697   000023                     	ds	2
   698   000025                     _piezasObjetivo:
   699                           	callstack 0
   700   000025                     	ds	2
   701   000027                     _decenasRGB:
   702                           	callstack 0
   703   000027                     	ds	2
   704   000029                     _unidades7Seg:
   705                           	callstack 0
   706   000029                     	ds	2
   707   00002B                     _piezasTotalesContadas:
   708                           	callstack 0
   709   00002B                     	ds	2
   710   00002D                     _ordenMotor:
   711                           	callstack 0
   712   00002D                     	ds	1
   713   00002E                     _paradaEmergencia:
   714                           	callstack 0
   715   00002E                     	ds	1
   716   00002F                     _rxByte:
   717                           	callstack 0
   718   00002F                     	ds	1
   719   000030                     _segundosSinActividad:
   720                           	callstack 0
   721   000030                     	ds	1
   722   000031                     _teclaLeida:
   723                           	callstack 0
   724   000031                     	ds	1
   725   000032                     _flagConteoActivo:
   726                           	callstack 0
   727   000032                     	ds	1
   728   000033                     _modoEdicionObjetivo:
   729                           	callstack 0
   730   000033                     	ds	1
   731   000034                     _indiceDigitoObjetivo:
   732                           	callstack 0
   733   000034                     	ds	1
   734                           
   735                           	psect	dataCOMRAM
   736   000035                     __pdataCOMRAM:
   737                           	callstack 0
   738   000035                     _interfaz:
   739                           	callstack 0
   740   000035                     	ds	1
   741   000036                     _Marco:
   742                           	callstack 0
   743   000036                     	ds	8
   744   00003E                     _Estrella:
   745                           	callstack 0
   746   00003E                     	ds	8
   747                           
   748                           	psect	cstackBANK0
   749   000060                     __pcstackBANK0:
   750                           	callstack 0
   751   000060                     ConfiguraLCD@a:
   752                           	callstack 0
   753   000060                     ___lbmod@divisor:
   754                           	callstack 0
   755   000060                     ??_RetardoLCD:
   756   000060                     
   757                           ; 1 bytes @ 0x0
   758   000060                     	ds	1
   759   000061                     RetardoLCD@a:
   760                           	callstack 0
   761   000061                     ___lbmod@dividend:
   762                           	callstack 0
   763   000061                     
   764                           ; 1 bytes @ 0x1
   765   000061                     	ds	1
   766   000062                     ___lbmod@counter:
   767                           	callstack 0
   768   000062                     ??_EnviaDato:
   769                           
   770                           ; 1 bytes @ 0x2
   771   000062                     	ds	1
   772   000063                     EnviaDato@a:
   773                           	callstack 0
   774   000063                     ___lbmod@rem:
   775                           	callstack 0
   776                           
   777                           ; 1 bytes @ 0x3
   778   000063                     	ds	1
   779   000064                     EscribeLCD_c@a:
   780                           	callstack 0
   781   000064                     DireccionaLCD@a:
   782                           	callstack 0
   783   000064                     ___lbdiv@divisor:
   784                           	callstack 0
   785   000064                     
   786                           ; 1 bytes @ 0x4
   787   000064                     	ds	1
   788   000065                     ComandoLCD@a:
   789                           	callstack 0
   790   000065                     MensajeLCD_Var@a:
   791                           	callstack 0
   792   000065                     CrearCaracter@arreglo:
   793                           	callstack 0
   794   000065                     ___lbdiv@dividend:
   795                           	callstack 0
   796   000065                     
   797                           ; 1 bytes @ 0x5
   798   000065                     	ds	1
   799   000066                     CrearCaracter@posicionCGRAM:
   800                           	callstack 0
   801   000066                     ___lbdiv@counter:
   802                           	callstack 0
   803   000066                     ??_MensajeLCD_Var:
   804   000066                     
   805                           ; 1 bytes @ 0x6
   806   000066                     	ds	1
   807   000067                     ___lbdiv@quotient:
   808                           	callstack 0
   809   000067                     MensajeLCD_Var@i:
   810                           	callstack 0
   811   000067                     CrearCaracter@i:
   812                           	callstack 0
   813   000067                     
   814                           ; 1 bytes @ 0x7
   815   000067                     	ds	1
   816   000068                     EscribeLCD_n8@b:
   817                           	callstack 0
   818                           
   819                           ; 1 bytes @ 0x8
   820   000068                     	ds	1
   821   000069                     EscribeLCD_n8@centena:
   822                           	callstack 0
   823   000069                     ??_Bienvenida:
   824   000069                     ??_PreguntaAlUsuario:
   825   000069                     
   826                           ; 1 bytes @ 0x9
   827   000069                     	ds	1
   828   00006A                     EscribeLCD_n8@decena:
   829                           	callstack 0
   830                           
   831                           ; 1 bytes @ 0xA
   832   00006A                     	ds	1
   833   00006B                     EscribeLCD_n8@unidad:
   834                           	callstack 0
   835   00006B                     Bienvenida@i:
   836                           	callstack 0
   837                           
   838                           ; 2 bytes @ 0xB
   839   00006B                     	ds	1
   840   00006C                     EscribeLCD_n8@a:
   841                           	callstack 0
   842                           
   843                           ; 1 bytes @ 0xC
   844   00006C                     	ds	1
   845   00006D                     ??_main:
   846                           
   847                           ; 1 bytes @ 0xD
   848   00006D                     	ds	2
   849                           
   850                           	psect	cstackCOMRAM
   851   000001                     __pcstackCOMRAM:
   852                           	callstack 0
   853   000001                     ?_Conversion:
   854                           	callstack 0
   855   000001                     ?___lwdiv:
   856                           	callstack 0
   857   000001                     putch@data:
   858                           	callstack 0
   859   000001                     i2___lbmod@divisor:
   860                           	callstack 0
   861   000001                     ___lwdiv@dividend:
   862                           	callstack 0
   863   000001                     ??i2_RetardoLCD:
   864                           
   865                           ; 1 bytes @ 0x0
   866   000001                     	ds	1
   867   000002                     i2RetardoLCD@a:
   868                           	callstack 0
   869   000002                     i2___lbmod@dividend:
   870                           	callstack 0
   871   000002                     
   872                           ; 1 bytes @ 0x1
   873   000002                     	ds	1
   874   000003                     Conversion@canal:
   875                           	callstack 0
   876   000003                     i2___lbmod@counter:
   877                           	callstack 0
   878   000003                     ___lwdiv@divisor:
   879                           	callstack 0
   880   000003                     ??i2_EnviaDato:
   881                           
   882                           ; 1 bytes @ 0x2
   883   000003                     	ds	1
   884   000004                     i2EnviaDato@a:
   885                           	callstack 0
   886   000004                     i2___lbmod@rem:
   887                           	callstack 0
   888                           
   889                           ; 1 bytes @ 0x3
   890   000004                     	ds	1
   891   000005                     i2EscribeLCD_c@a:
   892                           	callstack 0
   893   000005                     i2DireccionaLCD@a:
   894                           	callstack 0
   895   000005                     i2___lbdiv@divisor:
   896                           	callstack 0
   897   000005                     ___lwdiv@quotient:
   898                           	callstack 0
   899   000005                     
   900                           ; 1 bytes @ 0x4
   901   000005                     	ds	1
   902   000006                     i2ComandoLCD@a:
   903                           	callstack 0
   904   000006                     i2MensajeLCD_Var@a:
   905                           	callstack 0
   906   000006                     i2___lbdiv@dividend:
   907                           	callstack 0
   908   000006                     
   909                           ; 1 bytes @ 0x5
   910   000006                     	ds	1
   911   000007                     ___lwdiv@counter:
   912                           	callstack 0
   913   000007                     i2___lbdiv@counter:
   914                           	callstack 0
   915   000007                     ??i2_MensajeLCD_Var:
   916   000007                     
   917                           ; 1 bytes @ 0x6
   918   000007                     	ds	1
   919   000008                     ?___lwmod:
   920                           	callstack 0
   921   000008                     i2___lbdiv@quotient:
   922                           	callstack 0
   923   000008                     ___lwmod@dividend:
   924                           	callstack 0
   925   000008                     i2MensajeLCD_Var@i:
   926                           	callstack 0
   927                           
   928                           ; 2 bytes @ 0x7
   929   000008                     	ds	1
   930   000009                     i2EscribeLCD_n8@b:
   931                           	callstack 0
   932                           
   933                           ; 1 bytes @ 0x8
   934   000009                     	ds	1
   935   00000A                     i2EscribeLCD_n8@centena:
   936                           	callstack 0
   937   00000A                     ___lwmod@divisor:
   938                           	callstack 0
   939   00000A                     
   940                           ; 1 bytes @ 0x9
   941   00000A                     	ds	1
   942   00000B                     i2EscribeLCD_n8@decena:
   943                           	callstack 0
   944                           
   945                           ; 1 bytes @ 0xA
   946   00000B                     	ds	1
   947   00000C                     ___lwmod@counter:
   948                           	callstack 0
   949   00000C                     i2EscribeLCD_n8@unidad:
   950                           	callstack 0
   951   00000C                     
   952                           ; 1 bytes @ 0xB
   953   00000C                     	ds	1
   954   00000D                     ?_printf:
   955                           	callstack 0
   956   00000D                     printf@f:
   957                           	callstack 0
   958   00000D                     i2EscribeLCD_n8@a:
   959                           	callstack 0
   960                           
   961                           ; 1 bytes @ 0xC
   962   00000D                     	ds	1
   963   00000E                     ??_ConfigPregunta:
   964                           
   965                           ; 1 bytes @ 0xD
   966   00000E                     	ds	2
   967   000010                     ??_printf:
   968                           
   969                           ; 1 bytes @ 0xF
   970   000010                     	ds	1
   971   000011                     printf@ap:
   972                           	callstack 0
   973                           
   974                           ; 1 bytes @ 0x10
   975   000011                     	ds	1
   976   000012                     printf@flag:
   977                           	callstack 0
   978                           
   979                           ; 1 bytes @ 0x11
   980   000012                     	ds	1
   981   000013                     printf@prec:
   982                           	callstack 0
   983                           
   984                           ; 1 bytes @ 0x12
   985   000013                     	ds	1
   986   000014                     printf@val:
   987                           	callstack 0
   988                           
   989                           ; 2 bytes @ 0x13
   990   000014                     	ds	2
   991   000016                     printf@c:
   992                           	callstack 0
   993                           
   994                           ; 1 bytes @ 0x15
   995   000016                     	ds	1
   996   000017                     ??_ISR:
   997                           
   998                           ; 1 bytes @ 0x16
   999   000017                     	ds	12
  1000                           
  1001 ;;
  1002 ;;Main: autosize = 0, tempsize = 2, incstack = 0, save=0
  1003 ;;
  1004 ;; *************** function _main *****************
  1005 ;; Defined at:
  1006 ;;		line 81 in file "Lab5.c"
  1007 ;; Parameters:    Size  Location     Type
  1008 ;;		None
  1009 ;; Auto vars:     Size  Location     Type
  1010 ;;		None
  1011 ;; Return value:  Size  Location     Type
  1012 ;;                  1    wreg      void 
  1013 ;; Registers used:
  1014 ;;		wreg, fsr2l, fsr2h, status,2, status,0, tblptrl, tblptrh, tblptru, prodl, prodh, cstack
  1015 ;; Tracked objects:
  1016 ;;		On entry : 0/0
  1017 ;;		On exit  : 0/0
  1018 ;;		Unchanged: 0/0
  1019 ;; Data sizes:     COMRAM   BANK0   BANK1   BANK2   BANK3   BANK4   BANK5   BANK6   BANK7
  1020 ;;      Params:         0       0       0       0       0       0       0       0       0
  1021 ;;      Locals:         0       0       0       0       0       0       0       0       0
  1022 ;;      Temps:          0       2       0       0       0       0       0       0       0
  1023 ;;      Totals:         0       2       0       0       0       0       0       0       0
  1024 ;;Total ram usage:        2 bytes
  1025 ;; Hardware stack levels required when called: 15
  1026 ;; This function calls:
  1027 ;;		_Bienvenida
  1028 ;;		_BorraLCD
  1029 ;;		_ConfigVariables
  1030 ;;		_DireccionaLCD
  1031 ;;		_EscribeLCD_n8
  1032 ;;		_MensajeLCD_Var
  1033 ;;		_OcultarCursor
  1034 ;;		_PreguntaAlUsuario
  1035 ;; This function is called by:
  1036 ;;		Startup code after reset
  1037 ;; This function uses a non-reentrant model
  1038 ;;
  1039                           
  1040                           	psect	text0
  1041   000C34                     __ptext0:
  1042                           	callstack 0
  1043   000C34                     _main:
  1044                           	callstack 16
  1045                           
  1046                           ;Lab5.c: 83: ConfigVariables();
  1047                           
  1048                           ;incstack = 0
  1049   000C34  EC6D  F00B         	call	_ConfigVariables	;wreg free
  1050                           
  1051                           ;Lab5.c: 84: modoEdicionObjetivo = 0;
  1052   000C38  6A33               	clrf	_modoEdicionObjetivo^0,c
  1053                           
  1054                           ;Lab5.c: 85: rxByte = 0;
  1055   000C3A  6A2F               	clrf	_rxByte^0,c
  1056                           
  1057                           ;Lab5.c: 89: ADCON1 = 0b001110;
  1058   000C3C  0E0E               	movlw	14
  1059   000C3E  6EC1               	movwf	193,c	;volatile
  1060                           
  1061                           ;Lab5.c: 94: ADCON0 = 0b00000001;
  1062   000C40  0E01               	movlw	1
  1063   000C42  6EC2               	movwf	194,c	;volatile
  1064                           
  1065                           ;Lab5.c: 98: ADCON2 = 0b10001000;
  1066   000C44  0E88               	movlw	136
  1067   000C46  6EC0               	movwf	192,c	;volatile
  1068                           
  1069                           ;Lab5.c: 104: TRISE = 0;
  1070   000C48  6A96               	clrf	150,c	;volatile
  1071                           
  1072                           ;Lab5.c: 105: LATE = 0b00000111;
  1073   000C4A  0E07               	movlw	7
  1074   000C4C  6E8D               	movwf	141,c	;volatile
  1075                           
  1076                           ;Lab5.c: 109: TRISD = 0;
  1077   000C4E  6A95               	clrf	149,c	;volatile
  1078                           
  1079                           ;Lab5.c: 110: LATD = unidades7Seg;
  1080   000C50  C029  FF8C         	movff	_unidades7Seg,3980	;volatile
  1081                           
  1082                           ;Lab5.c: 114: TRISA1 = 0;
  1083   000C54  9292               	bcf	3986,1,c	;volatile
  1084                           
  1085                           ;Lab5.c: 115: LATA1 = 0;
  1086   000C56  9289               	bcf	3977,1,c	;volatile
  1087                           
  1088                           ;Lab5.c: 119: TRISA2 = 0;
  1089   000C58  9492               	bcf	3986,2,c	;volatile
  1090                           
  1091                           ;Lab5.c: 120: LATA2 = 0;
  1092   000C5A  9489               	bcf	3977,2,c	;volatile
  1093                           
  1094                           ;Lab5.c: 124: TRISA3 = 0;
  1095   000C5C  9692               	bcf	3986,3,c	;volatile
  1096                           
  1097                           ;Lab5.c: 125: LATA3 = 0;
  1098   000C5E  9689               	bcf	3977,3,c	;volatile
  1099                           
  1100                           ;Lab5.c: 126: TRISA4 = 0;
  1101   000C60  9892               	bcf	3986,4,c	;volatile
  1102                           
  1103                           ;Lab5.c: 130: TRISC2 = 0;
  1104   000C62  9494               	bcf	3988,2,c	;volatile
  1105                           
  1106                           ;Lab5.c: 131: LATC2 = 0;
  1107   000C64  948B               	bcf	3979,2,c	;volatile
  1108                           
  1109                           ;Lab5.c: 135: TRISC6 = 0;
  1110   000C66  9C94               	bcf	3988,6,c	;volatile
  1111                           
  1112                           ;Lab5.c: 136: TRISC7 = 1;
  1113   000C68  8E94               	bsf	3988,7,c	;volatile
  1114                           
  1115                           ;Lab5.c: 138: TXSTA = 0b00100100;
  1116   000C6A  0E24               	movlw	36
  1117   000C6C  6EAC               	movwf	172,c	;volatile
  1118                           
  1119                           ;Lab5.c: 144: RCSTA = 0b10010000;
  1120   000C6E  0E90               	movlw	144
  1121   000C70  6EAB               	movwf	171,c	;volatile
  1122                           
  1123                           ;Lab5.c: 148: BAUDCON= 0b00001000;
  1124   000C72  0E08               	movlw	8
  1125   000C74  6EB8               	movwf	184,c	;volatile
  1126                           
  1127                           ;Lab5.c: 151: SPBRG = 25;
  1128   000C76  0E19               	movlw	25
  1129   000C78  6EAF               	movwf	175,c	;volatile
  1130                           
  1131                           ;Lab5.c: 156: TRISC1 = 1;
  1132   000C7A  8294               	bsf	3988,1,c	;volatile
  1133                           
  1134                           ;Lab5.c: 160: TRISA5 = 0;
  1135   000C7C  9A92               	bcf	3986,5,c	;volatile
  1136                           
  1137                           ;Lab5.c: 161: LATA5 = 1;
  1138   000C7E  8A89               	bsf	3977,5,c	;volatile
  1139                           
  1140                           ;Lab5.c: 165: T0CON = 0b00000001;
  1141   000C80  0E01               	movlw	1
  1142   000C82  6ED5               	movwf	213,c	;volatile
  1143                           
  1144                           ;Lab5.c: 166: TMR0 = 3036;
  1145   000C84  0E0B               	movlw	11
  1146   000C86  6ED7               	movwf	215,c	;volatile
  1147   000C88  0EDC               	movlw	220
  1148   000C8A  6ED6               	movwf	214,c	;volatile
  1149                           
  1150                           ;Lab5.c: 167: TMR0IF = 0;
  1151   000C8C  94F2               	bcf	4082,2,c	;volatile
  1152                           
  1153                           ;Lab5.c: 168: TMR0IE = 1;
  1154   000C8E  8AF2               	bsf	4082,5,c	;volatile
  1155                           
  1156                           ;Lab5.c: 169: TMR0ON = 1;
  1157   000C90  8ED5               	bsf	4053,7,c	;volatile
  1158                           
  1159                           ;Lab5.c: 171: T1CON = 0b10110001;
  1160   000C92  0EB1               	movlw	177
  1161   000C94  6ECD               	movwf	205,c	;volatile
  1162                           
  1163                           ;Lab5.c: 174: TMR1 = 3036;
  1164   000C96  0E0B               	movlw	11
  1165   000C98  6ECF               	movwf	207,c	;volatile
  1166   000C9A  0EDC               	movlw	220
  1167   000C9C  6ECE               	movwf	206,c	;volatile
  1168                           
  1169                           ;Lab5.c: 175: TMR1IF = 0;
  1170   000C9E  909E               	bcf	3998,0,c	;volatile
  1171                           
  1172                           ;Lab5.c: 176: TMR1IE = 1;
  1173   000CA0  809D               	bsf	3997,0,c	;volatile
  1174                           
  1175                           ;Lab5.c: 177: TMR1ON = 1;
  1176   000CA2  80CD               	bsf	4045,0,c	;volatile
  1177                           
  1178                           ;Lab5.c: 179: TRISB = 0b11110000;
  1179   000CA4  0EF0               	movlw	240
  1180   000CA6  6E93               	movwf	147,c	;volatile
  1181                           
  1182                           ;Lab5.c: 180: LATB = 0b00000000;
  1183   000CA8  6A8A               	clrf	138,c	;volatile
  1184                           
  1185                           ;Lab5.c: 181: RBPU = 0;
  1186   000CAA  9EF1               	bcf	4081,7,c	;volatile
  1187                           
  1188                           ;Lab5.c: 182: _delay((unsigned long)((100)*(1000000/4000.0)));
  1189   000CAC  0E21               	movlw	33
  1190   000CAE  0100               	movlb	0	; () banked
  1191   000CB0  6F6D               	movwf	??_main& (0+255),b
  1192   000CB2  0E76               	movlw	118
  1193   000CB4                     u2567:
  1194   000CB4  2EE8               	decfsz	wreg,f,c
  1195   000CB6  D7FE               	bra	u2567
  1196   000CB8  2F6D               	decfsz	??_main& (0+255),f,b
  1197   000CBA  D7FC               	bra	u2567
  1198   000CBC  0000               	nop	
  1199                           
  1200                           ;Lab5.c: 183: RBIF = 0;
  1201   000CBE  90F2               	bcf	4082,0,c	;volatile
  1202                           
  1203                           ;Lab5.c: 184: RBIE = 1;
  1204   000CC0  86F2               	bsf	4082,3,c	;volatile
  1205                           
  1206                           ;Lab5.c: 186: RCIF = 0;
  1207   000CC2  9A9E               	bcf	3998,5,c	;volatile
  1208                           
  1209                           ;Lab5.c: 187: RCIE = 1;
  1210   000CC4  8A9D               	bsf	3997,5,c	;volatile
  1211                           
  1212                           ;Lab5.c: 189: PEIE = 1;
  1213   000CC6  8CF2               	bsf	4082,6,c	;volatile
  1214                           
  1215                           ;Lab5.c: 190: GIE = 1;
  1216   000CC8  8EF2               	bsf	4082,7,c	;volatile
  1217                           
  1218                           ;Lab5.c: 194: LATA3 = 1;
  1219   000CCA  8689               	bsf	3977,3,c	;volatile
  1220                           
  1221                           ;Lab5.c: 195: Bienvenida();
  1222   000CCC  ECE0  F008         	call	_Bienvenida	;wreg free
  1223                           
  1224                           ; BSR set to: 0
  1225                           ;Lab5.c: 197: if(POR == 0){
  1226   000CD0  B2D0               	btfsc	4048,1,c	;volatile
  1227   000CD2  D013               	goto	l3780
  1228                           
  1229                           ; BSR set to: 0
  1230                           ;Lab5.c: 198: POR = 1;
  1231   000CD4  82D0               	bsf	4048,1,c	;volatile
  1232                           
  1233                           ; BSR set to: 0
  1234                           ;Lab5.c: 199: BorraLCD();
  1235   000CD6  ECA1  F00C         	call	_BorraLCD	;wreg free
  1236                           
  1237                           ;Lab5.c: 200: OcultarCursor();
  1238   000CDA  ECE0  F00C         	call	_OcultarCursor	;wreg free
  1239                           
  1240                           ;Lab5.c: 201: MensajeLCD_Var("    FALLA DE");
  1241   000CDE  0E83               	movlw	low STR_1
  1242   000CE0  0100               	movlb	0	; () banked
  1243   000CE2  6F65               	movwf	MensajeLCD_Var@a& (0+255),b
  1244   000CE4  EC2E  F00B         	call	_MensajeLCD_Var	;wreg free
  1245                           
  1246                           ; BSR set to: 0
  1247                           ;Lab5.c: 202: DireccionaLCD(0xC0);
  1248   000CE8  0EC0               	movlw	192
  1249   000CEA  EC7E  F00C         	call	_DireccionaLCD
  1250                           
  1251                           ;Lab5.c: 203: MensajeLCD_Var("     ENERGIA");
  1252   000CEE  0E69               	movlw	low STR_2
  1253   000CF0  0100               	movlb	0	; () banked
  1254   000CF2  6F65               	movwf	MensajeLCD_Var@a& (0+255),b
  1255   000CF4  EC2E  F00B         	call	_MensajeLCD_Var	;wreg free
  1256                           
  1257                           ;Lab5.c: 204: }else{
  1258   000CF8  D011               	goto	l3786
  1259   000CFA                     l3780:
  1260                           
  1261                           ; BSR set to: 0
  1262                           ;Lab5.c: 205: BorraLCD();
  1263   000CFA  ECA1  F00C         	call	_BorraLCD	;wreg free
  1264                           
  1265                           ;Lab5.c: 206: OcultarCursor();
  1266   000CFE  ECE0  F00C         	call	_OcultarCursor	;wreg free
  1267                           
  1268                           ;Lab5.c: 207: MensajeLCD_Var("    RESET DE");
  1269   000D02  0E90               	movlw	low STR_3
  1270   000D04  0100               	movlb	0	; () banked
  1271   000D06  6F65               	movwf	MensajeLCD_Var@a& (0+255),b
  1272   000D08  EC2E  F00B         	call	_MensajeLCD_Var	;wreg free
  1273                           
  1274                           ; BSR set to: 0
  1275                           ;Lab5.c: 208: DireccionaLCD(0xC0);
  1276   000D0C  0EC0               	movlw	192
  1277   000D0E  EC7E  F00C         	call	_DireccionaLCD
  1278                           
  1279                           ;Lab5.c: 209: MensajeLCD_Var("     USUARIO");
  1280   000D12  0E9D               	movlw	low STR_4
  1281   000D14  0100               	movlb	0	; () banked
  1282   000D16  6F65               	movwf	MensajeLCD_Var@a& (0+255),b
  1283   000D18  EC2E  F00B         	call	_MensajeLCD_Var	;wreg free
  1284   000D1C                     l3786:
  1285                           
  1286                           ; BSR set to: 0
  1287                           ;Lab5.c: 210: };Lab5.c: 212: _delay((unsigned long)((1000)*(1000000/4000.0)));
  1288   000D1C  0E02               	movlw	2
  1289   000D1E  0100               	movlb	0	; () banked
  1290   000D20  6F6E               	movwf	(??_main+1)& (0+255),b
  1291   000D22  0E45               	movlw	69
  1292   000D24  6F6D               	movwf	??_main& (0+255),b
  1293   000D26  0EA9               	movlw	169
  1294   000D28                     u2577:
  1295   000D28  2EE8               	decfsz	wreg,f,c
  1296   000D2A  D7FE               	bra	u2577
  1297   000D2C  2F6D               	decfsz	??_main& (0+255),f,b
  1298   000D2E  D7FC               	bra	u2577
  1299   000D30  2F6E               	decfsz	(??_main+1)& (0+255),f,b
  1300   000D32  D7FA               	bra	u2577
  1301   000D34  D000               	nop2	
  1302                           
  1303                           ;Lab5.c: 213: LATA3 = 0;
  1304   000D36  9689               	bcf	3977,3,c	;volatile
  1305   000D38                     l3790:
  1306                           
  1307                           ;Lab5.c: 219: PreguntaAlUsuario();
  1308   000D38  EC3C  F009         	call	_PreguntaAlUsuario	;wreg free
  1309                           
  1310                           ;Lab5.c: 220: OcultarCursor();
  1311   000D3C  ECE0  F00C         	call	_OcultarCursor	;wreg free
  1312                           
  1313                           ;Lab5.c: 222: MensajeLCD_Var("Faltantes: ");
  1314   000D40  0EAA               	movlw	low STR_5
  1315   000D42  0100               	movlb	0	; () banked
  1316   000D44  6F65               	movwf	MensajeLCD_Var@a& (0+255),b
  1317   000D46  EC2E  F00B         	call	_MensajeLCD_Var	;wreg free
  1318                           
  1319                           ; BSR set to: 0
  1320                           ;Lab5.c: 223: EscribeLCD_n8(piezasObjetivo - piezasTotalesContadas, 2);
  1321   000D4A  0E02               	movlw	2
  1322   000D4C  6F68               	movwf	EscribeLCD_n8@b& (0+255),b
  1323   000D4E  502B               	movf	_piezasTotalesContadas^0,w,c
  1324   000D50  5C25               	subwf	_piezasObjetivo^0,w,c
  1325   000D52  ECF6  F007         	call	_EscribeLCD_n8
  1326                           
  1327                           ;Lab5.c: 224: DireccionaLCD(0xC0);
  1328   000D56  0EC0               	movlw	192
  1329   000D58  EC7E  F00C         	call	_DireccionaLCD
  1330                           
  1331                           ;Lab5.c: 225: MensajeLCD_Var("Objetivo: ");
  1332   000D5C  0EC2               	movlw	low STR_6
  1333   000D5E  0100               	movlb	0	; () banked
  1334   000D60  6F65               	movwf	MensajeLCD_Var@a& (0+255),b
  1335   000D62  EC2E  F00B         	call	_MensajeLCD_Var	;wreg free
  1336                           
  1337                           ; BSR set to: 0
  1338                           ;Lab5.c: 226: EscribeLCD_n8(piezasObjetivo, 2);
  1339   000D66  0E02               	movlw	2
  1340   000D68  6F68               	movwf	EscribeLCD_n8@b& (0+255),b
  1341   000D6A  5025               	movf	_piezasObjetivo^0,w,c
  1342   000D6C  ECF6  F007         	call	_EscribeLCD_n8
  1343                           
  1344                           ;Lab5.c: 228: flagConteoActivo = 1;
  1345   000D70  0E01               	movlw	1
  1346   000D72  6E32               	movwf	_flagConteoActivo^0,c
  1347                           
  1348                           ;Lab5.c: 230: while(flagConteoActivo == 1){
  1349   000D74  D0A7               	goto	l3898
  1350   000D76                     l3806:
  1351                           
  1352                           ;Lab5.c: 232: if(piezasTotalesContadas == piezasObjetivo){
  1353   000D76  5025               	movf	_piezasObjetivo^0,w,c
  1354   000D78  182B               	xorwf	_piezasTotalesContadas^0,w,c
  1355   000D7A  E12A               	bnz	l3830
  1356   000D7C  5026               	movf	(_piezasObjetivo+1)^0,w,c
  1357   000D7E  182C               	xorwf	(_piezasTotalesContadas+1)^0,w,c
  1358   000D80  A4D8               	btfss	status,2,c
  1359   000D82  D026               	goto	l3830
  1360                           
  1361                           ;Lab5.c: 234: LATA2 = 1;
  1362   000D84  8489               	bsf	3977,2,c	;volatile
  1363                           
  1364                           ;Lab5.c: 235: _delay((unsigned long)((1000)*(1000000/4000.0)));
  1365   000D86  0E02               	movlw	2
  1366   000D88  0100               	movlb	0	; () banked
  1367   000D8A  6F6E               	movwf	(??_main+1)& (0+255),b
  1368   000D8C  0E45               	movlw	69
  1369   000D8E  6F6D               	movwf	??_main& (0+255),b
  1370   000D90  0EA9               	movlw	169
  1371   000D92                     u2587:
  1372   000D92  2EE8               	decfsz	wreg,f,c
  1373   000D94  D7FE               	bra	u2587
  1374   000D96  2F6D               	decfsz	??_main& (0+255),f,b
  1375   000D98  D7FC               	bra	u2587
  1376   000D9A  2F6E               	decfsz	(??_main+1)& (0+255),f,b
  1377   000D9C  D7FA               	bra	u2587
  1378   000D9E  D000               	nop2	
  1379                           
  1380                           ;Lab5.c: 236: LATA2 = 0;
  1381   000DA0  9489               	bcf	3977,2,c	;volatile
  1382                           
  1383                           ;Lab5.c: 238: BorraLCD();
  1384   000DA2  ECA1  F00C         	call	_BorraLCD	;wreg free
  1385                           
  1386                           ;Lab5.c: 239: MensajeLCD_Var("Cuenta Cumplida");
  1387   000DA6  0E2F               	movlw	low STR_7
  1388   000DA8  0100               	movlb	0	; () banked
  1389   000DAA  6F65               	movwf	MensajeLCD_Var@a& (0+255),b
  1390   000DAC  EC2E  F00B         	call	_MensajeLCD_Var	;wreg free
  1391                           
  1392                           ; BSR set to: 0
  1393                           ;Lab5.c: 240: DireccionaLCD(0xC0);
  1394   000DB0  0EC0               	movlw	192
  1395   000DB2  EC7E  F00C         	call	_DireccionaLCD
  1396                           
  1397                           ;Lab5.c: 241: MensajeLCD_Var("   Presione OK");
  1398   000DB6  0E3F               	movlw	low STR_8
  1399   000DB8  0100               	movlb	0	; () banked
  1400   000DBA  6F65               	movwf	MensajeLCD_Var@a& (0+255),b
  1401   000DBC  EC2E  F00B         	call	_MensajeLCD_Var	;wreg free
  1402                           
  1403                           ; BSR set to: 0
  1404                           ;Lab5.c: 243: flagConteoActivo = 0;
  1405   000DC0  6A32               	clrf	_flagConteoActivo^0,c
  1406                           
  1407                           ; BSR set to: 0
  1408                           ;Lab5.c: 244: teclaLeida = '\0';
  1409   000DC2  6A31               	clrf	_teclaLeida^0,c
  1410   000DC4                     l3826:
  1411   000DC4  0E2A               	movlw	42
  1412   000DC6  1831               	xorwf	_teclaLeida^0,w,c
  1413   000DC8  A4D8               	btfss	status,2,c
  1414   000DCA  D7FC               	goto	l3826
  1415                           
  1416                           ;Lab5.c: 248: ConfigVariables();
  1417   000DCC  EC6D  F00B         	call	_ConfigVariables	;wreg free
  1418   000DD0                     l3830:
  1419                           
  1420                           ;Lab5.c: 249: };Lab5.c: 251: if(RC1 == 0 && piezasTotalesContadas != piezasObjetivo){
  1421   000DD0  B282               	btfsc	3970,1,c	;volatile
  1422   000DD2  D009               	goto	l3836
  1423   000DD4  5025               	movf	_piezasObjetivo^0,w,c
  1424   000DD6  182B               	xorwf	_piezasTotalesContadas^0,w,c
  1425   000DD8  E104               	bnz	u2440
  1426   000DDA  5026               	movf	(_piezasObjetivo+1)^0,w,c
  1427   000DDC  182C               	xorwf	(_piezasTotalesContadas+1)^0,w,c
  1428   000DDE  B4D8               	btfsc	status,2,c
  1429   000DE0  D002               	goto	l3836
  1430   000DE2                     u2440:
  1431                           
  1432                           ;Lab5.c: 252: segundosSinActividad = 0;
  1433   000DE2  6A30               	clrf	_segundosSinActividad^0,c
  1434                           
  1435                           ;Lab5.c: 253: pulsadorListo = 0;
  1436   000DE4  6A46               	clrf	_pulsadorListo^0,c
  1437   000DE6                     l3836:
  1438                           
  1439                           ;Lab5.c: 254: };Lab5.c: 256: if(pulsadorListo == 0){
  1440   000DE6  5046               	movf	_pulsadorListo^0,w,c
  1441   000DE8  B4D8               	btfsc	status,2,c
  1442                           
  1443                           ;Lab5.c: 257: if(RC1 == 1){
  1444   000DEA  A282               	btfss	3970,1,c	;volatile
  1445   000DEC  D06B               	goto	l3898
  1446                           
  1447                           ;Lab5.c: 259: pulsadorListo = 1;
  1448   000DEE  0E01               	movlw	1
  1449   000DF0  6E46               	movwf	_pulsadorListo^0,c
  1450                           
  1451                           ;Lab5.c: 261: unidades7Seg++;
  1452   000DF2  4A29               	infsnz	_unidades7Seg^0,f,c
  1453   000DF4  2A2A               	incf	(_unidades7Seg+1)^0,f,c
  1454                           
  1455                           ;Lab5.c: 262: piezasTotalesContadas++;
  1456   000DF6  4A2B               	infsnz	_piezasTotalesContadas^0,f,c
  1457   000DF8  2A2C               	incf	(_piezasTotalesContadas+1)^0,f,c
  1458                           
  1459                           ;Lab5.c: 264: if(unidades7Seg == 10){
  1460   000DFA  0E0A               	movlw	10
  1461   000DFC  1829               	xorwf	_unidades7Seg^0,w,c
  1462   000DFE  102A               	iorwf	(_unidades7Seg+1)^0,w,c
  1463   000E00  A4D8               	btfss	status,2,c
  1464   000E02  D025               	goto	l3868
  1465                           
  1466                           ;Lab5.c: 266: LATA2 = 1;
  1467   000E04  8489               	bsf	3977,2,c	;volatile
  1468                           
  1469                           ;Lab5.c: 267: _delay((unsigned long)((300)*(1000000/4000.0)));
  1470   000E06  0E62               	movlw	98
  1471   000E08  0100               	movlb	0	; () banked
  1472   000E0A  6F6D               	movwf	??_main& (0+255),b
  1473   000E0C  0E65               	movlw	101
  1474   000E0E                     u2597:
  1475   000E0E  2EE8               	decfsz	wreg,f,c
  1476   000E10  D7FE               	bra	u2597
  1477   000E12  2F6D               	decfsz	??_main& (0+255),f,b
  1478   000E14  D7FC               	bra	u2597
  1479   000E16  D000               	nop2	
  1480                           
  1481                           ;Lab5.c: 268: LATA2 = 0;
  1482   000E18  9489               	bcf	3977,2,c	;volatile
  1483                           
  1484                           ;Lab5.c: 270: unidades7Seg = 0;
  1485   000E1A  0E00               	movlw	0
  1486   000E1C  6E2A               	movwf	(_unidades7Seg+1)^0,c
  1487   000E1E  0E00               	movlw	0
  1488   000E20  6E29               	movwf	_unidades7Seg^0,c
  1489                           
  1490                           ;Lab5.c: 271: decenasRGB++;
  1491   000E22  4A27               	infsnz	_decenasRGB^0,f,c
  1492   000E24  2A28               	incf	(_decenasRGB+1)^0,f,c
  1493                           
  1494                           ;Lab5.c: 273: if(decenasRGB == 6){
  1495   000E26  0E06               	movlw	6
  1496   000E28  1827               	xorwf	_decenasRGB^0,w,c
  1497   000E2A  1028               	iorwf	(_decenasRGB+1)^0,w,c
  1498   000E2C  A4D8               	btfss	status,2,c
  1499   000E2E  D00F               	goto	l3868
  1500                           
  1501                           ;Lab5.c: 275: LATA2 = 1;
  1502   000E30  8489               	bsf	3977,2,c	;volatile
  1503                           
  1504                           ;Lab5.c: 276: _delay((unsigned long)((300)*(1000000/4000.0)));
  1505   000E32  0E62               	movlw	98
  1506   000E34  0100               	movlb	0	; () banked
  1507   000E36  6F6D               	movwf	??_main& (0+255),b
  1508   000E38  0E65               	movlw	101
  1509   000E3A                     u2607:
  1510   000E3A  2EE8               	decfsz	wreg,f,c
  1511   000E3C  D7FE               	bra	u2607
  1512   000E3E  2F6D               	decfsz	??_main& (0+255),f,b
  1513   000E40  D7FC               	bra	u2607
  1514   000E42  D000               	nop2	
  1515                           
  1516                           ;Lab5.c: 277: LATA2 = 0;
  1517   000E44  9489               	bcf	3977,2,c	;volatile
  1518                           
  1519                           ;Lab5.c: 279: decenasRGB = 0;
  1520   000E46  0E00               	movlw	0
  1521   000E48  6E28               	movwf	(_decenasRGB+1)^0,c
  1522   000E4A  0E00               	movlw	0
  1523   000E4C  6E27               	movwf	_decenasRGB^0,c
  1524   000E4E                     l3868:
  1525                           
  1526                           ;Lab5.c: 280: };Lab5.c: 281: };Lab5.c: 283: if(decenasRGB == 0){
  1527   000E4E  5027               	movf	_decenasRGB^0,w,c
  1528   000E50  1028               	iorwf	(_decenasRGB+1)^0,w,c
  1529   000E52  A4D8               	btfss	status,2,c
  1530   000E54  D002               	goto	l3872
  1531                           
  1532                           ;Lab5.c: 284: LATE = 0b00000001;
  1533   000E56  0E01               	movlw	1
  1534   000E58  D01A               	goto	L4
  1535   000E5A                     l3872:
  1536   000E5A  0427               	decf	_decenasRGB^0,w,c
  1537   000E5C  1028               	iorwf	(_decenasRGB+1)^0,w,c
  1538   000E5E  A4D8               	btfss	status,2,c
  1539   000E60  D002               	goto	l3876
  1540                           
  1541                           ;Lab5.c: 286: LATE = 0b00000101;
  1542   000E62  0E05               	movlw	5
  1543   000E64  D014               	goto	L4
  1544   000E66                     l3876:
  1545   000E66  0E02               	movlw	2
  1546   000E68  1827               	xorwf	_decenasRGB^0,w,c
  1547   000E6A  1028               	iorwf	(_decenasRGB+1)^0,w,c
  1548   000E6C  A4D8               	btfss	status,2,c
  1549   000E6E  D002               	goto	l3880
  1550                           
  1551                           ;Lab5.c: 288: LATE = 0b00000100;
  1552   000E70  0E04               	movlw	4
  1553   000E72  D00D               	goto	L4
  1554   000E74                     l3880:
  1555   000E74  0E03               	movlw	3
  1556   000E76  1827               	xorwf	_decenasRGB^0,w,c
  1557   000E78  1028               	iorwf	(_decenasRGB+1)^0,w,c
  1558   000E7A  A4D8               	btfss	status,2,c
  1559   000E7C  D002               	goto	l3884
  1560                           
  1561                           ;Lab5.c: 290: LATE = 0b00000110;
  1562   000E7E  0E06               	movlw	6
  1563   000E80  D006               	goto	L4
  1564   000E82                     l3884:
  1565   000E82  0E04               	movlw	4
  1566   000E84  1827               	xorwf	_decenasRGB^0,w,c
  1567   000E86  1028               	iorwf	(_decenasRGB+1)^0,w,c
  1568   000E88  A4D8               	btfss	status,2,c
  1569   000E8A  D003               	goto	l3888
  1570                           
  1571                           ;Lab5.c: 292: LATE = 0b00000010;
  1572   000E8C  0E02               	movlw	2
  1573   000E8E                     L4:
  1574   000E8E  6E8D               	movwf	141,c	;volatile
  1575                           
  1576                           ;Lab5.c: 293: }else if(decenasRGB == 5){
  1577   000E90  D005               	goto	l309
  1578   000E92                     l3888:
  1579   000E92  0E05               	movlw	5
  1580   000E94  1827               	xorwf	_decenasRGB^0,w,c
  1581   000E96  1028               	iorwf	(_decenasRGB+1)^0,w,c
  1582   000E98  B4D8               	btfsc	status,2,c
  1583                           
  1584                           ;Lab5.c: 294: LATE = 0b00000000;
  1585   000E9A  6A8D               	clrf	141,c	;volatile
  1586   000E9C                     l309:
  1587                           
  1588                           ;Lab5.c: 295: };Lab5.c: 297: DireccionaLCD(0x8B);
  1589   000E9C  0E8B               	movlw	139
  1590   000E9E  EC7E  F00C         	call	_DireccionaLCD
  1591                           
  1592                           ;Lab5.c: 298: EscribeLCD_n8(piezasObjetivo - piezasTotalesContadas, 2);
  1593   000EA2  0E02               	movlw	2
  1594   000EA4  0100               	movlb	0	; () banked
  1595   000EA6  6F68               	movwf	EscribeLCD_n8@b& (0+255),b
  1596   000EA8  502B               	movf	_piezasTotalesContadas^0,w,c
  1597   000EAA  5C25               	subwf	_piezasObjetivo^0,w,c
  1598   000EAC  ECF6  F007         	call	_EscribeLCD_n8
  1599                           
  1600                           ;Lab5.c: 300: LATD = unidades7Seg;
  1601   000EB0  C029  FF8C         	movff	_unidades7Seg,3980	;volatile
  1602                           
  1603                           ;Lab5.c: 302: _delay((unsigned long)((500)*(1000000/4000.0)));
  1604   000EB4  0EA3               	movlw	163
  1605   000EB6  0100               	movlb	0	; () banked
  1606   000EB8  6F6D               	movwf	??_main& (0+255),b
  1607   000EBA  0E55               	movlw	85
  1608   000EBC                     u2617:
  1609   000EBC  2EE8               	decfsz	wreg,f,c
  1610   000EBE  D7FE               	bra	u2617
  1611   000EC0  2F6D               	decfsz	??_main& (0+255),f,b
  1612   000EC2  D7FC               	bra	u2617
  1613   000EC4                     l3898:
  1614   000EC4  0432               	decf	_flagConteoActivo^0,w,c
  1615   000EC6  B4D8               	btfsc	status,2,c
  1616   000EC8  D756               	goto	l3806
  1617                           
  1618                           ;Lab5.c: 303: };Lab5.c: 304: };Lab5.c: 305: };Lab5.c: 307: LATE = 0b00000010;
  1619   000ECA  0E02               	movlw	2
  1620   000ECC  6E8D               	movwf	141,c	;volatile
  1621                           
  1622                           ;Lab5.c: 308: LATD = unidades7Seg;
  1623   000ECE  C029  FF8C         	movff	_unidades7Seg,3980	;volatile
  1624   000ED2  D732               	goto	l3790
  1625   000ED4                     __end_of_main:
  1626                           	callstack 0
  1627                           
  1628 ;; *************** function _PreguntaAlUsuario *****************
  1629 ;; Defined at:
  1630 ;;		line 589 in file "Lab5.c"
  1631 ;; Parameters:    Size  Location     Type
  1632 ;;		None
  1633 ;; Auto vars:     Size  Location     Type
  1634 ;;		None
  1635 ;; Return value:  Size  Location     Type
  1636 ;;                  1    wreg      void 
  1637 ;; Registers used:
  1638 ;;		wreg, fsr2l, fsr2h, status,2, status,0, tblptrl, tblptrh, tblptru, prodl, prodh, cstack
  1639 ;; Tracked objects:
  1640 ;;		On entry : 0/0
  1641 ;;		On exit  : 0/0
  1642 ;;		Unchanged: 0/0
  1643 ;; Data sizes:     COMRAM   BANK0   BANK1   BANK2   BANK3   BANK4   BANK5   BANK6   BANK7
  1644 ;;      Params:         0       0       0       0       0       0       0       0       0
  1645 ;;      Locals:         0       0       0       0       0       0       0       0       0
  1646 ;;      Temps:          0       2       0       0       0       0       0       0       0
  1647 ;;      Totals:         0       2       0       0       0       0       0       0       0
  1648 ;;Total ram usage:        2 bytes
  1649 ;; Hardware stack levels used: 1
  1650 ;; Hardware stack levels required when called: 14
  1651 ;; This function calls:
  1652 ;;		_BorraLCD
  1653 ;;		_CrearCaracter
  1654 ;;		_DireccionaLCD
  1655 ;;		_EscribeLCD_c
  1656 ;;		_MensajeLCD_Var
  1657 ;;		_MostrarCursor
  1658 ;;		_OcultarCursor
  1659 ;; This function is called by:
  1660 ;;		_main
  1661 ;; This function uses a non-reentrant model
  1662 ;;
  1663                           
  1664                           	psect	text1
  1665   001278                     __ptext1:
  1666                           	callstack 0
  1667   001278                     _PreguntaAlUsuario:
  1668                           	callstack 16
  1669                           
  1670                           ;Lab5.c: 593: CrearCaracter(Marco, 1);
  1671                           
  1672                           ;incstack = 0
  1673                           ;Lab5.c: 591: while(1){
  1674   001278  0E36               	movlw	low _Marco
  1675   00127A  0100               	movlb	0	; () banked
  1676   00127C  6F65               	movwf	CrearCaracter@arreglo& (0+255),b
  1677   00127E  0E01               	movlw	1
  1678   001280  6F66               	movwf	CrearCaracter@posicionCGRAM& (0+255),b
  1679   001282  ECE4  F009         	call	_CrearCaracter	;wreg free
  1680                           
  1681                           ;Lab5.c: 594: indiceDigitoObjetivo = 0;
  1682   001286  6A34               	clrf	_indiceDigitoObjetivo^0,c
  1683                           
  1684                           ;Lab5.c: 596: BorraLCD();
  1685   001288  ECA1  F00C         	call	_BorraLCD	;wreg free
  1686                           
  1687                           ;Lab5.c: 597: MensajeLCD_Var("Piezas a contar:");
  1688   00128C  0E1E               	movlw	low STR_16
  1689   00128E  0100               	movlb	0	; () banked
  1690   001290  6F65               	movwf	MensajeLCD_Var@a& (0+255),b
  1691   001292  EC2E  F00B         	call	_MensajeLCD_Var	;wreg free
  1692                           
  1693                           ; BSR set to: 0
  1694                           ;Lab5.c: 598: DireccionaLCD(0xC7);
  1695   001296  0EC7               	movlw	199
  1696   001298  EC7E  F00C         	call	_DireccionaLCD
  1697                           
  1698                           ;Lab5.c: 599: EscribeLCD_c(1);
  1699   00129C  0E01               	movlw	1
  1700   00129E  EC71  F00C         	call	_EscribeLCD_c
  1701                           
  1702                           ;Lab5.c: 600: EscribeLCD_c(1);
  1703   0012A2  0E01               	movlw	1
  1704   0012A4  EC71  F00C         	call	_EscribeLCD_c
  1705                           
  1706                           ;Lab5.c: 601: DireccionaLCD(0xC7);
  1707   0012A8  0EC7               	movlw	199
  1708   0012AA  EC7E  F00C         	call	_DireccionaLCD
  1709                           
  1710                           ;Lab5.c: 602: MostrarCursor();
  1711   0012AE  ECDC  F00C         	call	_MostrarCursor	;wreg free
  1712                           
  1713                           ;Lab5.c: 604: modoEdicionObjetivo = 1;
  1714   0012B2  0E01               	movlw	1
  1715   0012B4  6E33               	movwf	_modoEdicionObjetivo^0,c
  1716   0012B6                     l3644:
  1717   0012B6  0E2A               	movlw	42
  1718   0012B8  1831               	xorwf	_teclaLeida^0,w,c
  1719   0012BA  A4D8               	btfss	status,2,c
  1720   0012BC  D7FC               	goto	l3644
  1721                           
  1722                           ;Lab5.c: 608: };Lab5.c: 610: if((piezasObjetivo > 59) || (piezasObjetivo == 0)){
  1723   0012BE  5026               	movf	(_piezasObjetivo+1)^0,w,c
  1724   0012C0  E108               	bnz	l420
  1725   0012C2  0E3C               	movlw	60
  1726   0012C4  5C25               	subwf	_piezasObjetivo^0,w,c
  1727   0012C6  B0D8               	btfsc	status,0,c
  1728   0012C8  D004               	goto	u2390
  1729   0012CA  5025               	movf	_piezasObjetivo^0,w,c
  1730   0012CC  1026               	iorwf	(_piezasObjetivo+1)^0,w,c
  1731   0012CE  A4D8               	btfss	status,2,c
  1732   0012D0  D027               	goto	l418
  1733   0012D2                     u2390:
  1734   0012D2                     l420:
  1735                           
  1736                           ;Lab5.c: 612: modoEdicionObjetivo = 0;
  1737   0012D2  6A33               	clrf	_modoEdicionObjetivo^0,c
  1738                           
  1739                           ;Lab5.c: 613: teclaLeida = '\0';
  1740   0012D4  6A31               	clrf	_teclaLeida^0,c
  1741                           
  1742                           ;Lab5.c: 614: piezasObjetivo = 0;
  1743   0012D6  0E00               	movlw	0
  1744   0012D8  6E26               	movwf	(_piezasObjetivo+1)^0,c
  1745   0012DA  0E00               	movlw	0
  1746   0012DC  6E25               	movwf	_piezasObjetivo^0,c
  1747                           
  1748                           ;Lab5.c: 616: BorraLCD();
  1749   0012DE  ECA1  F00C         	call	_BorraLCD	;wreg free
  1750                           
  1751                           ;Lab5.c: 617: OcultarCursor();
  1752   0012E2  ECE0  F00C         	call	_OcultarCursor	;wreg free
  1753                           
  1754                           ;Lab5.c: 618: MensajeLCD_Var("Error");
  1755   0012E6  0ED7               	movlw	low STR_17
  1756   0012E8  0100               	movlb	0	; () banked
  1757   0012EA  6F65               	movwf	MensajeLCD_Var@a& (0+255),b
  1758   0012EC  EC2E  F00B         	call	_MensajeLCD_Var	;wreg free
  1759                           
  1760                           ; BSR set to: 0
  1761                           ;Lab5.c: 619: DireccionaLCD(0xC0);
  1762   0012F0  0EC0               	movlw	192
  1763   0012F2  EC7E  F00C         	call	_DireccionaLCD
  1764                           
  1765                           ;Lab5.c: 620: MensajeLCD_Var("Try again");
  1766   0012F6  0ECD               	movlw	low STR_18
  1767   0012F8  0100               	movlb	0	; () banked
  1768   0012FA  6F65               	movwf	MensajeLCD_Var@a& (0+255),b
  1769   0012FC  EC2E  F00B         	call	_MensajeLCD_Var	;wreg free
  1770                           
  1771                           ; BSR set to: 0
  1772                           ;Lab5.c: 621: _delay((unsigned long)((2000)*(1000000/4000.0)));
  1773   001300  0E03               	movlw	3
  1774   001302  0100               	movlb	0	; () banked
  1775   001304  6F6A               	movwf	(??_PreguntaAlUsuario+1)& (0+255),b
  1776   001306  0E8A               	movlw	138
  1777   001308  6F69               	movwf	??_PreguntaAlUsuario& (0+255),b
  1778   00130A  0E55               	movlw	85
  1779   00130C                     u2627:
  1780   00130C  2EE8               	decfsz	wreg,f,c
  1781   00130E  D7FE               	bra	u2627
  1782   001310  2F69               	decfsz	??_PreguntaAlUsuario& (0+255),f,b
  1783   001312  D7FC               	bra	u2627
  1784   001314  2F6A               	decfsz	(??_PreguntaAlUsuario+1)& (0+255),f,b
  1785   001316  D7FA               	bra	u2627
  1786   001318  D000               	nop2	
  1787                           
  1788                           ;Lab5.c: 622: BorraLCD();
  1789   00131A  ECA1  F00C         	call	_BorraLCD	;wreg free
  1790                           
  1791                           ;Lab5.c: 623: }else{
  1792   00131E  D7AC               	goto	__ptext1
  1793   001320                     l418:
  1794                           
  1795                           ;Lab5.c: 625: modoEdicionObjetivo = 0;
  1796   001320  6A33               	clrf	_modoEdicionObjetivo^0,c
  1797                           
  1798                           ;Lab5.c: 626: indiceDigitoObjetivo = 0;
  1799   001322  6A34               	clrf	_indiceDigitoObjetivo^0,c
  1800                           
  1801                           ;Lab5.c: 627: BorraLCD();
  1802   001324  ECA1  F00C         	call	_BorraLCD	;wreg free
  1803                           
  1804                           ;Lab5.c: 628: teclaLeida = '\0';
  1805   001328  6A31               	clrf	_teclaLeida^0,c
  1806                           
  1807                           ;Lab5.c: 629: break;
  1808   00132A  0012               	return		;funcret
  1809   00132C                     __end_of_PreguntaAlUsuario:
  1810                           	callstack 0
  1811                           
  1812 ;; *************** function _MostrarCursor *****************
  1813 ;; Defined at:
  1814 ;;		line 326 in file "LibLCDXC8_1.h"
  1815 ;; Parameters:    Size  Location     Type
  1816 ;;		None
  1817 ;; Auto vars:     Size  Location     Type
  1818 ;;		None
  1819 ;; Return value:  Size  Location     Type
  1820 ;;                  1    wreg      void 
  1821 ;; Registers used:
  1822 ;;		wreg, status,2, status,0, cstack
  1823 ;; Tracked objects:
  1824 ;;		On entry : 0/0
  1825 ;;		On exit  : 0/0
  1826 ;;		Unchanged: 0/0
  1827 ;; Data sizes:     COMRAM   BANK0   BANK1   BANK2   BANK3   BANK4   BANK5   BANK6   BANK7
  1828 ;;      Params:         0       0       0       0       0       0       0       0       0
  1829 ;;      Locals:         0       0       0       0       0       0       0       0       0
  1830 ;;      Temps:          0       0       0       0       0       0       0       0       0
  1831 ;;      Totals:         0       0       0       0       0       0       0       0       0
  1832 ;;Total ram usage:        0 bytes
  1833 ;; Hardware stack levels used: 1
  1834 ;; Hardware stack levels required when called: 13
  1835 ;; This function calls:
  1836 ;;		_ComandoLCD
  1837 ;; This function is called by:
  1838 ;;		_PreguntaAlUsuario
  1839 ;; This function uses a non-reentrant model
  1840 ;;
  1841                           
  1842                           	psect	text2
  1843   0019B8                     __ptext2:
  1844                           	callstack 0
  1845   0019B8                     _MostrarCursor:
  1846                           	callstack 16
  1847                           
  1848                           ;LibLCDXC8_1.h: 327: ComandoLCD(0xF);
  1849                           
  1850                           ;incstack = 0
  1851   0019B8  0E0F               	movlw	15
  1852   0019BA  ECE1  F00B         	call	_ComandoLCD
  1853   0019BE  0012               	return		;funcret
  1854   0019C0                     __end_of_MostrarCursor:
  1855                           	callstack 0
  1856                           
  1857 ;; *************** function _EscribeLCD_n8 *****************
  1858 ;; Defined at:
  1859 ;;		line 149 in file "LibLCDXC8_1.h"
  1860 ;; Parameters:    Size  Location     Type
  1861 ;;  a               1    wreg     unsigned char 
  1862 ;;  b               1    8[BANK0 ] unsigned char 
  1863 ;; Auto vars:     Size  Location     Type
  1864 ;;  a               1   12[BANK0 ] unsigned char 
  1865 ;;  unidad          1   11[BANK0 ] unsigned char 
  1866 ;;  decena          1   10[BANK0 ] unsigned char 
  1867 ;;  centena         1    9[BANK0 ] unsigned char 
  1868 ;; Return value:  Size  Location     Type
  1869 ;;                  1    wreg      void 
  1870 ;; Registers used:
  1871 ;;		wreg, status,2, status,0, cstack
  1872 ;; Tracked objects:
  1873 ;;		On entry : 3F/0
  1874 ;;		On exit  : 0/0
  1875 ;;		Unchanged: 0/0
  1876 ;; Data sizes:     COMRAM   BANK0   BANK1   BANK2   BANK3   BANK4   BANK5   BANK6   BANK7
  1877 ;;      Params:         0       1       0       0       0       0       0       0       0
  1878 ;;      Locals:         0       4       0       0       0       0       0       0       0
  1879 ;;      Temps:          0       0       0       0       0       0       0       0       0
  1880 ;;      Totals:         0       5       0       0       0       0       0       0       0
  1881 ;;Total ram usage:        5 bytes
  1882 ;; Hardware stack levels used: 1
  1883 ;; Hardware stack levels required when called: 10
  1884 ;; This function calls:
  1885 ;;		_EnviaDato
  1886 ;;		_HabilitaLCD
  1887 ;;		_RetardoLCD
  1888 ;;		___lbdiv
  1889 ;;		___lbmod
  1890 ;; This function is called by:
  1891 ;;		_main
  1892 ;; This function uses a non-reentrant model
  1893 ;;
  1894                           
  1895                           	psect	text3
  1896   000FEC                     __ptext3:
  1897                           	callstack 0
  1898   000FEC                     _EscribeLCD_n8:
  1899                           	callstack 20
  1900                           
  1901                           ;incstack = 0
  1902                           ;EscribeLCD_n8@a stored from wreg
  1903   000FEC  6F6C               	movwf	EscribeLCD_n8@a& (0+255),b
  1904                           
  1905                           ;LibLCDXC8_1.h: 154: unsigned char centena,decena,unidad;;LibLCDXC8_1.h: 155: LATA4=1;
  1906   000FEE  8889               	bsf	3977,4,c	;volatile
  1907                           
  1908                           ;LibLCDXC8_1.h: 156: switch(b){
  1909   000FF0  D068               	goto	l3564
  1910   000FF2                     l3532:
  1911                           
  1912                           ; BSR set to: 0
  1913   000FF2  0E0A               	movlw	10
  1914   000FF4  6F60               	movwf	___lbmod@divisor& (0+255),b
  1915   000FF6  516C               	movf	EscribeLCD_n8@a& (0+255),w,b
  1916   000FF8  EC2C  F00C         	call	___lbmod
  1917   000FFC  6F6B               	movwf	EscribeLCD_n8@unidad& (0+255),b
  1918                           
  1919                           ;LibLCDXC8_1.h: 158: EnviaDato(unidad+48);
  1920   000FFE  516B               	movf	EscribeLCD_n8@unidad& (0+255),w,b
  1921   001000  0F30               	addlw	48
  1922   001002  ECC4  F00A         	call	_EnviaDato
  1923                           
  1924                           ;LibLCDXC8_1.h: 159: HabilitaLCD();
  1925   001006  ECC8  F00C         	call	_HabilitaLCD	;wreg free
  1926                           
  1927                           ;LibLCDXC8_1.h: 160: RetardoLCD(4);
  1928   00100A  0E04               	movlw	4
  1929   00100C  EC14  F00A         	call	_RetardoLCD
  1930                           
  1931                           ;LibLCDXC8_1.h: 161: break;
  1932   001010  0012               	return	
  1933   001012                     l3538:
  1934                           
  1935                           ; BSR set to: 0
  1936   001012  0E0A               	movlw	10
  1937   001014  6F64               	movwf	___lbdiv@divisor& (0+255),b
  1938   001016  0E64               	movlw	100
  1939   001018  6F60               	movwf	___lbmod@divisor& (0+255),b
  1940   00101A  516C               	movf	EscribeLCD_n8@a& (0+255),w,b
  1941   00101C  EC2C  F00C         	call	___lbmod
  1942   001020  ECA8  F00B         	call	___lbdiv
  1943   001024  6F6A               	movwf	EscribeLCD_n8@decena& (0+255),b
  1944                           
  1945                           ;LibLCDXC8_1.h: 163: unidad=a%10;
  1946   001026  0E0A               	movlw	10
  1947   001028  6F60               	movwf	___lbmod@divisor& (0+255),b
  1948   00102A  516C               	movf	EscribeLCD_n8@a& (0+255),w,b
  1949   00102C  EC2C  F00C         	call	___lbmod
  1950   001030  6F6B               	movwf	EscribeLCD_n8@unidad& (0+255),b
  1951                           
  1952                           ;LibLCDXC8_1.h: 164: EnviaDato(decena+48);
  1953   001032  516A               	movf	EscribeLCD_n8@decena& (0+255),w,b
  1954   001034  0F30               	addlw	48
  1955   001036  ECC4  F00A         	call	_EnviaDato
  1956                           
  1957                           ;LibLCDXC8_1.h: 165: HabilitaLCD();
  1958   00103A  ECC8  F00C         	call	_HabilitaLCD	;wreg free
  1959                           
  1960                           ;LibLCDXC8_1.h: 166: RetardoLCD(4);
  1961   00103E  0E04               	movlw	4
  1962   001040  EC14  F00A         	call	_RetardoLCD
  1963                           
  1964                           ;LibLCDXC8_1.h: 167: EnviaDato(unidad+48);
  1965   001044  0100               	movlb	0	; () banked
  1966   001046  516B               	movf	EscribeLCD_n8@unidad& (0+255),w,b
  1967   001048  0F30               	addlw	48
  1968   00104A  ECC4  F00A         	call	_EnviaDato
  1969                           
  1970                           ;LibLCDXC8_1.h: 168: HabilitaLCD();
  1971   00104E  ECC8  F00C         	call	_HabilitaLCD	;wreg free
  1972                           
  1973                           ;LibLCDXC8_1.h: 169: RetardoLCD(4);
  1974   001052  0E04               	movlw	4
  1975   001054  EC14  F00A         	call	_RetardoLCD
  1976                           
  1977                           ;LibLCDXC8_1.h: 170: break;
  1978   001058  0012               	return	
  1979   00105A                     l3548:
  1980                           
  1981                           ; BSR set to: 0
  1982   00105A  0E64               	movlw	100
  1983   00105C  6F64               	movwf	___lbdiv@divisor& (0+255),b
  1984   00105E  516C               	movf	EscribeLCD_n8@a& (0+255),w,b
  1985   001060  ECA8  F00B         	call	___lbdiv
  1986   001064  6F69               	movwf	EscribeLCD_n8@centena& (0+255),b
  1987                           
  1988                           ;LibLCDXC8_1.h: 172: decena=(a%100)/10;
  1989   001066  0E0A               	movlw	10
  1990   001068  6F64               	movwf	___lbdiv@divisor& (0+255),b
  1991   00106A  0E64               	movlw	100
  1992   00106C  6F60               	movwf	___lbmod@divisor& (0+255),b
  1993   00106E  516C               	movf	EscribeLCD_n8@a& (0+255),w,b
  1994   001070  EC2C  F00C         	call	___lbmod
  1995   001074  ECA8  F00B         	call	___lbdiv
  1996   001078  6F6A               	movwf	EscribeLCD_n8@decena& (0+255),b
  1997                           
  1998                           ;LibLCDXC8_1.h: 173: unidad=a%10;
  1999   00107A  0E0A               	movlw	10
  2000   00107C  6F60               	movwf	___lbmod@divisor& (0+255),b
  2001   00107E  516C               	movf	EscribeLCD_n8@a& (0+255),w,b
  2002   001080  EC2C  F00C         	call	___lbmod
  2003   001084  6F6B               	movwf	EscribeLCD_n8@unidad& (0+255),b
  2004                           
  2005                           ;LibLCDXC8_1.h: 174: EnviaDato(centena+48);
  2006   001086  5169               	movf	EscribeLCD_n8@centena& (0+255),w,b
  2007   001088  0F30               	addlw	48
  2008   00108A  ECC4  F00A         	call	_EnviaDato
  2009                           
  2010                           ;LibLCDXC8_1.h: 175: HabilitaLCD();
  2011   00108E  ECC8  F00C         	call	_HabilitaLCD	;wreg free
  2012                           
  2013                           ;LibLCDXC8_1.h: 176: RetardoLCD(4);
  2014   001092  0E04               	movlw	4
  2015   001094  EC14  F00A         	call	_RetardoLCD
  2016                           
  2017                           ;LibLCDXC8_1.h: 177: EnviaDato(decena+48);
  2018   001098  0100               	movlb	0	; () banked
  2019   00109A  516A               	movf	EscribeLCD_n8@decena& (0+255),w,b
  2020   00109C  0F30               	addlw	48
  2021   00109E  ECC4  F00A         	call	_EnviaDato
  2022                           
  2023                           ;LibLCDXC8_1.h: 178: HabilitaLCD();
  2024   0010A2  ECC8  F00C         	call	_HabilitaLCD	;wreg free
  2025                           
  2026                           ;LibLCDXC8_1.h: 179: RetardoLCD(4);
  2027   0010A6  0E04               	movlw	4
  2028   0010A8  EC14  F00A         	call	_RetardoLCD
  2029                           
  2030                           ;LibLCDXC8_1.h: 180: EnviaDato(unidad+48);
  2031   0010AC  0100               	movlb	0	; () banked
  2032   0010AE  516B               	movf	EscribeLCD_n8@unidad& (0+255),w,b
  2033   0010B0  0F30               	addlw	48
  2034   0010B2  ECC4  F00A         	call	_EnviaDato
  2035                           
  2036                           ;LibLCDXC8_1.h: 181: HabilitaLCD();
  2037   0010B6  ECC8  F00C         	call	_HabilitaLCD	;wreg free
  2038                           
  2039                           ;LibLCDXC8_1.h: 182: RetardoLCD(4);
  2040   0010BA  0E04               	movlw	4
  2041   0010BC  EC14  F00A         	call	_RetardoLCD
  2042                           
  2043                           ;LibLCDXC8_1.h: 183: break;
  2044   0010C0  0012               	return	
  2045   0010C2                     l3564:
  2046   0010C2  0100               	movlb	0	; () banked
  2047   0010C4  5168               	movf	EscribeLCD_n8@b& (0+255),w,b
  2048                           
  2049                           ; Switch size 1, requested type "simple"
  2050                           ; Number of cases is 3, Range of values is 1 to 3
  2051                           ; switch strategies available:
  2052                           ; Name         Instructions Cycles
  2053                           ; simple_byte           10     6 (average)
  2054                           ;	Chosen strategy is simple_byte
  2055   0010C6  0A01               	xorlw	1	; case 1
  2056   0010C8  B4D8               	btfsc	status,2,c
  2057   0010CA  D793               	goto	l3532
  2058   0010CC  0A03               	xorlw	3	; case 2
  2059   0010CE  B4D8               	btfsc	status,2,c
  2060   0010D0  D7A0               	goto	l3538
  2061   0010D2  0A01               	xorlw	1	; case 3
  2062   0010D4  A4D8               	btfss	status,2,c
  2063   0010D6  0012               	return	
  2064   0010D8  D7C0               	goto	l3548
  2065   0010DA                     __end_of_EscribeLCD_n8:
  2066                           	callstack 0
  2067                           
  2068 ;; *************** function ___lbmod *****************
  2069 ;; Defined at:
  2070 ;;		line 4 in file "C:\Program Files\Microchip\xc8\v2.50\pic\sources\c90\common\lbmod.c"
  2071 ;; Parameters:    Size  Location     Type
  2072 ;;  dividend        1    wreg     unsigned char 
  2073 ;;  divisor         1    0[BANK0 ] unsigned char 
  2074 ;; Auto vars:     Size  Location     Type
  2075 ;;  dividend        1    1[BANK0 ] unsigned char 
  2076 ;;  rem             1    3[BANK0 ] unsigned char 
  2077 ;;  counter         1    2[BANK0 ] unsigned char 
  2078 ;; Return value:  Size  Location     Type
  2079 ;;                  1    wreg      unsigned char 
  2080 ;; Registers used:
  2081 ;;		wreg, status,2, status,0
  2082 ;; Tracked objects:
  2083 ;;		On entry : 3F/0
  2084 ;;		On exit  : 3F/0
  2085 ;;		Unchanged: 0/0
  2086 ;; Data sizes:     COMRAM   BANK0   BANK1   BANK2   BANK3   BANK4   BANK5   BANK6   BANK7
  2087 ;;      Params:         0       1       0       0       0       0       0       0       0
  2088 ;;      Locals:         0       3       0       0       0       0       0       0       0
  2089 ;;      Temps:          0       0       0       0       0       0       0       0       0
  2090 ;;      Totals:         0       4       0       0       0       0       0       0       0
  2091 ;;Total ram usage:        4 bytes
  2092 ;; Hardware stack levels used: 1
  2093 ;; Hardware stack levels required when called: 8
  2094 ;; This function calls:
  2095 ;;		Nothing
  2096 ;; This function is called by:
  2097 ;;		_EscribeLCD_n8
  2098 ;; This function uses a non-reentrant model
  2099 ;;
  2100                           
  2101                           	psect	text4
  2102   001858                     __ptext4:
  2103                           	callstack 0
  2104   001858                     ___lbmod:
  2105                           	callstack 21
  2106                           
  2107                           ;incstack = 0
  2108                           ;___lbmod@dividend stored from wreg
  2109   001858  6F61               	movwf	___lbmod@dividend& (0+255),b
  2110   00185A  0E08               	movlw	8
  2111   00185C  0100               	movlb	0	; () banked
  2112   00185E  6F62               	movwf	___lbmod@counter& (0+255),b
  2113                           
  2114                           ; BSR set to: 0
  2115   001860  6B63               	clrf	___lbmod@rem& (0+255),b
  2116   001862                     l3516:
  2117                           
  2118                           ; BSR set to: 0
  2119   001862  90D8               	bcf	status,0,c
  2120   001864  3561               	rlcf	___lbmod@dividend& (0+255),w,b
  2121   001866  3563               	rlcf	___lbmod@rem& (0+255),w,b
  2122   001868  6F63               	movwf	___lbmod@rem& (0+255),b
  2123                           
  2124                           ; BSR set to: 0
  2125   00186A  90D8               	bcf	status,0,c
  2126   00186C  3761               	rlcf	___lbmod@dividend& (0+255),f,b
  2127                           
  2128                           ; BSR set to: 0
  2129   00186E  5160               	movf	___lbmod@divisor& (0+255),w,b
  2130   001870  5D63               	subwf	___lbmod@rem& (0+255),w,b
  2131   001872  A0D8               	btfss	status,0,c
  2132   001874  D002               	goto	l3524
  2133                           
  2134                           ; BSR set to: 0
  2135   001876  5160               	movf	___lbmod@divisor& (0+255),w,b
  2136   001878  5F63               	subwf	___lbmod@rem& (0+255),f,b
  2137   00187A                     l3524:
  2138                           
  2139                           ; BSR set to: 0
  2140   00187A  2F62               	decfsz	___lbmod@counter& (0+255),f,b
  2141   00187C  D7F2               	goto	l3516
  2142                           
  2143                           ; BSR set to: 0
  2144   00187E  5163               	movf	___lbmod@rem& (0+255),w,b
  2145                           
  2146                           ; BSR set to: 0
  2147   001880  0012               	return		;funcret
  2148   001882                     __end_of___lbmod:
  2149                           	callstack 0
  2150                           
  2151 ;; *************** function ___lbdiv *****************
  2152 ;; Defined at:
  2153 ;;		line 4 in file "C:\Program Files\Microchip\xc8\v2.50\pic\sources\c90\common\lbdiv.c"
  2154 ;; Parameters:    Size  Location     Type
  2155 ;;  dividend        1    wreg     unsigned char 
  2156 ;;  divisor         1    4[BANK0 ] unsigned char 
  2157 ;; Auto vars:     Size  Location     Type
  2158 ;;  dividend        1    5[BANK0 ] unsigned char 
  2159 ;;  quotient        1    7[BANK0 ] unsigned char 
  2160 ;;  counter         1    6[BANK0 ] unsigned char 
  2161 ;; Return value:  Size  Location     Type
  2162 ;;                  1    wreg      unsigned char 
  2163 ;; Registers used:
  2164 ;;		wreg, status,2, status,0
  2165 ;; Tracked objects:
  2166 ;;		On entry : 3F/0
  2167 ;;		On exit  : 3F/0
  2168 ;;		Unchanged: 0/0
  2169 ;; Data sizes:     COMRAM   BANK0   BANK1   BANK2   BANK3   BANK4   BANK5   BANK6   BANK7
  2170 ;;      Params:         0       1       0       0       0       0       0       0       0
  2171 ;;      Locals:         0       3       0       0       0       0       0       0       0
  2172 ;;      Temps:          0       0       0       0       0       0       0       0       0
  2173 ;;      Totals:         0       4       0       0       0       0       0       0       0
  2174 ;;Total ram usage:        4 bytes
  2175 ;; Hardware stack levels used: 1
  2176 ;; Hardware stack levels required when called: 8
  2177 ;; This function calls:
  2178 ;;		Nothing
  2179 ;; This function is called by:
  2180 ;;		_EscribeLCD_n8
  2181 ;; This function uses a non-reentrant model
  2182 ;;
  2183                           
  2184                           	psect	text5
  2185   001750                     __ptext5:
  2186                           	callstack 0
  2187   001750                     ___lbdiv:
  2188                           	callstack 21
  2189                           
  2190                           ; BSR set to: 0
  2191                           ;incstack = 0
  2192                           ;___lbdiv@dividend stored from wreg
  2193   001750  6F65               	movwf	___lbdiv@dividend& (0+255),b
  2194   001752  0100               	movlb	0	; () banked
  2195   001754  6B67               	clrf	___lbdiv@quotient& (0+255),b
  2196                           
  2197                           ; BSR set to: 0
  2198   001756  5164               	movf	___lbdiv@divisor& (0+255),w,b
  2199   001758  B4D8               	btfsc	status,2,c
  2200   00175A  D015               	goto	l3508
  2201                           
  2202                           ; BSR set to: 0
  2203   00175C  0E01               	movlw	1
  2204   00175E  6F66               	movwf	___lbdiv@counter& (0+255),b
  2205   001760  D003               	goto	l3496
  2206   001762                     l3492:
  2207                           
  2208                           ; BSR set to: 0
  2209   001762  90D8               	bcf	status,0,c
  2210   001764  3764               	rlcf	___lbdiv@divisor& (0+255),f,b
  2211                           
  2212                           ; BSR set to: 0
  2213   001766  2B66               	incf	___lbdiv@counter& (0+255),f,b
  2214   001768                     l3496:
  2215                           
  2216                           ; BSR set to: 0
  2217   001768  AF64               	btfss	___lbdiv@divisor& (0+255),7,b
  2218   00176A  D7FB               	goto	l3492
  2219   00176C                     u2330:
  2220                           
  2221                           ; BSR set to: 0
  2222   00176C  90D8               	bcf	status,0,c
  2223   00176E  3767               	rlcf	___lbdiv@quotient& (0+255),f,b
  2224   001770  5164               	movf	___lbdiv@divisor& (0+255),w,b
  2225   001772  5D65               	subwf	___lbdiv@dividend& (0+255),w,b
  2226   001774  A0D8               	btfss	status,0,c
  2227   001776  D003               	goto	l3504
  2228                           
  2229                           ; BSR set to: 0
  2230   001778  5164               	movf	___lbdiv@divisor& (0+255),w,b
  2231   00177A  5F65               	subwf	___lbdiv@dividend& (0+255),f,b
  2232                           
  2233                           ; BSR set to: 0
  2234   00177C  8167               	bsf	___lbdiv@quotient& (0+255),0,b
  2235   00177E                     l3504:
  2236                           
  2237                           ; BSR set to: 0
  2238   00177E  90D8               	bcf	status,0,c
  2239   001780  3364               	rrcf	___lbdiv@divisor& (0+255),f,b
  2240                           
  2241                           ; BSR set to: 0
  2242   001782  2F66               	decfsz	___lbdiv@counter& (0+255),f,b
  2243   001784  D7F3               	goto	u2330
  2244   001786                     l3508:
  2245                           
  2246                           ; BSR set to: 0
  2247   001786  5167               	movf	___lbdiv@quotient& (0+255),w,b
  2248                           
  2249                           ; BSR set to: 0
  2250   001788  0012               	return		;funcret
  2251   00178A                     __end_of___lbdiv:
  2252                           	callstack 0
  2253                           
  2254 ;; *************** function _ConfigVariables *****************
  2255 ;; Defined at:
  2256 ;;		line 538 in file "Lab5.c"
  2257 ;; Parameters:    Size  Location     Type
  2258 ;;		None
  2259 ;; Auto vars:     Size  Location     Type
  2260 ;;		None
  2261 ;; Return value:  Size  Location     Type
  2262 ;;                  1    wreg      void 
  2263 ;; Registers used:
  2264 ;;		wreg, status,2
  2265 ;; Tracked objects:
  2266 ;;		On entry : 0/0
  2267 ;;		On exit  : 0/0
  2268 ;;		Unchanged: 0/0
  2269 ;; Data sizes:     COMRAM   BANK0   BANK1   BANK2   BANK3   BANK4   BANK5   BANK6   BANK7
  2270 ;;      Params:         0       0       0       0       0       0       0       0       0
  2271 ;;      Locals:         0       0       0       0       0       0       0       0       0
  2272 ;;      Temps:          0       0       0       0       0       0       0       0       0
  2273 ;;      Totals:         0       0       0       0       0       0       0       0       0
  2274 ;;Total ram usage:        0 bytes
  2275 ;; Hardware stack levels used: 1
  2276 ;; Hardware stack levels required when called: 8
  2277 ;; This function calls:
  2278 ;;		Nothing
  2279 ;; This function is called by:
  2280 ;;		_main
  2281 ;; This function uses a non-reentrant model
  2282 ;;
  2283                           
  2284                           	psect	text6
  2285   0016DA                     __ptext6:
  2286                           	callstack 0
  2287   0016DA                     _ConfigVariables:
  2288                           	callstack 22
  2289                           
  2290                           ;Lab5.c: 540: pulsadorListo = 1;
  2291                           
  2292                           ; BSR set to: 0
  2293                           ;incstack = 0
  2294   0016DA  0E01               	movlw	1
  2295   0016DC  6E46               	movwf	_pulsadorListo^0,c
  2296                           
  2297                           ;Lab5.c: 541: unidades7Seg = 0;
  2298   0016DE  0E00               	movlw	0
  2299   0016E0  6E2A               	movwf	(_unidades7Seg+1)^0,c
  2300   0016E2  0E00               	movlw	0
  2301   0016E4  6E29               	movwf	_unidades7Seg^0,c
  2302                           
  2303                           ;Lab5.c: 542: flagConteoActivo = 0;
  2304   0016E6  6A32               	clrf	_flagConteoActivo^0,c
  2305                           
  2306                           ;Lab5.c: 543: piezasTotalesContadas = 0;
  2307   0016E8  0E00               	movlw	0
  2308   0016EA  6E2C               	movwf	(_piezasTotalesContadas+1)^0,c
  2309   0016EC  0E00               	movlw	0
  2310   0016EE  6E2B               	movwf	_piezasTotalesContadas^0,c
  2311                           
  2312                           ;Lab5.c: 544: decenasRGB = 0;
  2313   0016F0  0E00               	movlw	0
  2314   0016F2  6E28               	movwf	(_decenasRGB+1)^0,c
  2315   0016F4  0E00               	movlw	0
  2316   0016F6  6E27               	movwf	_decenasRGB^0,c
  2317                           
  2318                           ;Lab5.c: 545: indiceDigitoObjetivo = 0;
  2319   0016F8  6A34               	clrf	_indiceDigitoObjetivo^0,c
  2320                           
  2321                           ;Lab5.c: 546: piezasObjetivo = 0;
  2322   0016FA  0E00               	movlw	0
  2323   0016FC  6E26               	movwf	(_piezasObjetivo+1)^0,c
  2324   0016FE  0E00               	movlw	0
  2325   001700  6E25               	movwf	_piezasObjetivo^0,c
  2326                           
  2327                           ;Lab5.c: 547: teclaLeida = '\0';
  2328   001702  6A31               	clrf	_teclaLeida^0,c
  2329                           
  2330                           ;Lab5.c: 548: segundosSinActividad = 0;
  2331   001704  6A30               	clrf	_segundosSinActividad^0,c
  2332                           
  2333                           ;Lab5.c: 550: adcValor = 0;
  2334   001706  0E00               	movlw	0
  2335   001708  6E24               	movwf	(_adcValor+1)^0,c
  2336   00170A  0E00               	movlw	0
  2337   00170C  6E23               	movwf	_adcValor^0,c
  2338                           
  2339                           ;Lab5.c: 551: rxByte = 0;
  2340   00170E  6A2F               	clrf	_rxByte^0,c
  2341                           
  2342                           ;Lab5.c: 553: paradaEmergencia = 0;
  2343   001710  6A2E               	clrf	_paradaEmergencia^0,c
  2344                           
  2345                           ;Lab5.c: 554: ordenMotor = 0;
  2346   001712  6A2D               	clrf	_ordenMotor^0,c
  2347   001714  0012               	return		;funcret
  2348   001716                     __end_of_ConfigVariables:
  2349                           	callstack 0
  2350                           
  2351 ;; *************** function _Bienvenida *****************
  2352 ;; Defined at:
  2353 ;;		line 557 in file "Lab5.c"
  2354 ;; Parameters:    Size  Location     Type
  2355 ;;		None
  2356 ;; Auto vars:     Size  Location     Type
  2357 ;;  i               2   11[BANK0 ] int 
  2358 ;; Return value:  Size  Location     Type
  2359 ;;                  1    wreg      void 
  2360 ;; Registers used:
  2361 ;;		wreg, fsr2l, fsr2h, status,2, status,0, tblptrl, tblptrh, tblptru, prodl, prodh, cstack
  2362 ;; Tracked objects:
  2363 ;;		On entry : 0/0
  2364 ;;		On exit  : 3F/0
  2365 ;;		Unchanged: 0/0
  2366 ;; Data sizes:     COMRAM   BANK0   BANK1   BANK2   BANK3   BANK4   BANK5   BANK6   BANK7
  2367 ;;      Params:         0       0       0       0       0       0       0       0       0
  2368 ;;      Locals:         0       2       0       0       0       0       0       0       0
  2369 ;;      Temps:          0       2       0       0       0       0       0       0       0
  2370 ;;      Totals:         0       4       0       0       0       0       0       0       0
  2371 ;;Total ram usage:        4 bytes
  2372 ;; Hardware stack levels used: 1
  2373 ;; Hardware stack levels required when called: 14
  2374 ;; This function calls:
  2375 ;;		_ConfiguraLCD
  2376 ;;		_CrearCaracter
  2377 ;;		_DesplazaPantallaD
  2378 ;;		_DireccionaLCD
  2379 ;;		_EscribeLCD_c
  2380 ;;		_InicializaLCD
  2381 ;;		_MensajeLCD_Var
  2382 ;;		_OcultarCursor
  2383 ;; This function is called by:
  2384 ;;		_main
  2385 ;; This function uses a non-reentrant model
  2386 ;;
  2387                           
  2388                           	psect	text7
  2389   0011C0                     __ptext7:
  2390                           	callstack 0
  2391   0011C0                     _Bienvenida:
  2392                           	callstack 16
  2393                           
  2394                           ;Lab5.c: 559: ConfiguraLCD(4);
  2395                           
  2396                           ;incstack = 0
  2397   0011C0  0E04               	movlw	4
  2398   0011C2  EC55  F00C         	call	_ConfiguraLCD
  2399                           
  2400                           ;Lab5.c: 560: InicializaLCD();
  2401   0011C6  EC96  F009         	call	_InicializaLCD	;wreg free
  2402                           
  2403                           ;Lab5.c: 561: OcultarCursor();
  2404   0011CA  ECE0  F00C         	call	_OcultarCursor	;wreg free
  2405                           
  2406                           ;Lab5.c: 563: CrearCaracter(Estrella, 0);
  2407   0011CE  0E3E               	movlw	low _Estrella
  2408   0011D0  0100               	movlb	0	; () banked
  2409   0011D2  6F65               	movwf	CrearCaracter@arreglo& (0+255),b
  2410   0011D4  0E00               	movlw	0
  2411   0011D6  6F66               	movwf	CrearCaracter@posicionCGRAM& (0+255),b
  2412   0011D8  ECE4  F009         	call	_CrearCaracter	;wreg free
  2413                           
  2414                           ;Lab5.c: 566: EscribeLCD_c(0);
  2415   0011DC  0E00               	movlw	0
  2416   0011DE  EC71  F00C         	call	_EscribeLCD_c
  2417                           
  2418                           ;Lab5.c: 567: EscribeLCD_c(0);
  2419   0011E2  0E00               	movlw	0
  2420   0011E4  EC71  F00C         	call	_EscribeLCD_c
  2421                           
  2422                           ;Lab5.c: 568: MensajeLCD_Var(" Bienvenido ");
  2423   0011E8  0E5C               	movlw	low STR_14
  2424   0011EA  0100               	movlb	0	; () banked
  2425   0011EC  6F65               	movwf	MensajeLCD_Var@a& (0+255),b
  2426   0011EE  EC2E  F00B         	call	_MensajeLCD_Var	;wreg free
  2427                           
  2428                           ; BSR set to: 0
  2429                           ;Lab5.c: 569: EscribeLCD_c(0);
  2430   0011F2  0E00               	movlw	0
  2431   0011F4  EC71  F00C         	call	_EscribeLCD_c
  2432                           
  2433                           ;Lab5.c: 570: EscribeLCD_c(0);
  2434   0011F8  0E00               	movlw	0
  2435   0011FA  EC71  F00C         	call	_EscribeLCD_c
  2436                           
  2437                           ;Lab5.c: 573: DireccionaLCD(0xC0);
  2438   0011FE  0EC0               	movlw	192
  2439   001200  EC7E  F00C         	call	_DireccionaLCD
  2440                           
  2441                           ;Lab5.c: 576: EscribeLCD_c(0);
  2442   001204  0E00               	movlw	0
  2443   001206  EC71  F00C         	call	_EscribeLCD_c
  2444                           
  2445                           ;Lab5.c: 577: EscribeLCD_c(0);
  2446   00120A  0E00               	movlw	0
  2447   00120C  EC71  F00C         	call	_EscribeLCD_c
  2448                           
  2449                           ;Lab5.c: 578: MensajeLCD_Var("  Operario ");
  2450   001210  0EB6               	movlw	low STR_15
  2451   001212  0100               	movlb	0	; () banked
  2452   001214  6F65               	movwf	MensajeLCD_Var@a& (0+255),b
  2453   001216  EC2E  F00B         	call	_MensajeLCD_Var	;wreg free
  2454                           
  2455                           ; BSR set to: 0
  2456                           ;Lab5.c: 579: EscribeLCD_c(0);
  2457   00121A  0E00               	movlw	0
  2458   00121C  EC71  F00C         	call	_EscribeLCD_c
  2459                           
  2460                           ;Lab5.c: 580: EscribeLCD_c(0);
  2461   001220  0E00               	movlw	0
  2462   001222  EC71  F00C         	call	_EscribeLCD_c
  2463                           
  2464                           ;Lab5.c: 581: _delay((unsigned long)((4200)*(1000000/4000.0)));
  2465   001226  0E06               	movlw	6
  2466   001228  0100               	movlb	0	; () banked
  2467   00122A  6F6A               	movwf	(??_Bienvenida+1)& (0+255),b
  2468   00122C  0E54               	movlw	84
  2469   00122E  6F69               	movwf	??_Bienvenida& (0+255),b
  2470   001230  0E9D               	movlw	157
  2471   001232                     u2637:
  2472   001232  2EE8               	decfsz	wreg,f,c
  2473   001234  D7FE               	bra	u2637
  2474   001236  2F69               	decfsz	??_Bienvenida& (0+255),f,b
  2475   001238  D7FC               	bra	u2637
  2476   00123A  2F6A               	decfsz	(??_Bienvenida+1)& (0+255),f,b
  2477   00123C  D7FA               	bra	u2637
  2478                           
  2479                           ;Lab5.c: 583: for(int i = 0; i < 18; i++){
  2480   00123E  0E00               	movlw	0
  2481   001240  0100               	movlb	0	; () banked
  2482   001242  6F6C               	movwf	(Bienvenida@i+1)& (0+255),b
  2483   001244  0E00               	movlw	0
  2484   001246  6F6B               	movwf	Bienvenida@i& (0+255),b
  2485   001248                     l3616:
  2486                           
  2487                           ; BSR set to: 0
  2488                           ;Lab5.c: 584: DesplazaPantallaD();
  2489   001248  ECAB  F00C         	call	_DesplazaPantallaD	;wreg free
  2490                           
  2491                           ;Lab5.c: 585: _delay((unsigned long)((100)*(1000000/4000.0)));
  2492   00124C  0E21               	movlw	33
  2493   00124E  0100               	movlb	0	; () banked
  2494   001250  6F69               	movwf	??_Bienvenida& (0+255),b
  2495   001252  0E76               	movlw	118
  2496   001254                     u2647:
  2497   001254  2EE8               	decfsz	wreg,f,c
  2498   001256  D7FE               	bra	u2647
  2499   001258  2F69               	decfsz	??_Bienvenida& (0+255),f,b
  2500   00125A  D7FC               	bra	u2647
  2501   00125C  0000               	nop	
  2502   00125E  0100               	movlb	0	; () banked
  2503   001260  4B6B               	infsnz	Bienvenida@i& (0+255),f,b
  2504   001262  2B6C               	incf	(Bienvenida@i+1)& (0+255),f,b
  2505                           
  2506                           ; BSR set to: 0
  2507   001264  BF6C               	btfsc	(Bienvenida@i+1)& (0+255),7,b
  2508   001266  D7F0               	goto	l3616
  2509   001268  516C               	movf	(Bienvenida@i+1)& (0+255),w,b
  2510   00126A  E105               	bnz	u2360
  2511   00126C  0E12               	movlw	18
  2512   00126E  5D6B               	subwf	Bienvenida@i& (0+255),w,b
  2513   001270  B0D8               	btfsc	status,0,c
  2514   001272  0012               	return	
  2515   001274  D7E9               	goto	l3616
  2516   001276                     u2360:
  2517                           
  2518                           ; BSR set to: 0
  2519   001276  0012               	return		;funcret
  2520   001278                     __end_of_Bienvenida:
  2521                           	callstack 0
  2522                           
  2523 ;; *************** function _OcultarCursor *****************
  2524 ;; Defined at:
  2525 ;;		line 323 in file "LibLCDXC8_1.h"
  2526 ;; Parameters:    Size  Location     Type
  2527 ;;		None
  2528 ;; Auto vars:     Size  Location     Type
  2529 ;;		None
  2530 ;; Return value:  Size  Location     Type
  2531 ;;                  1    wreg      void 
  2532 ;; Registers used:
  2533 ;;		wreg, status,2, status,0, cstack
  2534 ;; Tracked objects:
  2535 ;;		On entry : 0/0
  2536 ;;		On exit  : 0/0
  2537 ;;		Unchanged: 0/0
  2538 ;; Data sizes:     COMRAM   BANK0   BANK1   BANK2   BANK3   BANK4   BANK5   BANK6   BANK7
  2539 ;;      Params:         0       0       0       0       0       0       0       0       0
  2540 ;;      Locals:         0       0       0       0       0       0       0       0       0
  2541 ;;      Temps:          0       0       0       0       0       0       0       0       0
  2542 ;;      Totals:         0       0       0       0       0       0       0       0       0
  2543 ;;Total ram usage:        0 bytes
  2544 ;; Hardware stack levels used: 1
  2545 ;; Hardware stack levels required when called: 13
  2546 ;; This function calls:
  2547 ;;		_ComandoLCD
  2548 ;; This function is called by:
  2549 ;;		_main
  2550 ;;		_Bienvenida
  2551 ;;		_PreguntaAlUsuario
  2552 ;; This function uses a non-reentrant model
  2553 ;;
  2554                           
  2555                           	psect	text8
  2556   0019C0                     __ptext8:
  2557                           	callstack 0
  2558   0019C0                     _OcultarCursor:
  2559                           	callstack 16
  2560                           
  2561                           ;LibLCDXC8_1.h: 324: ComandoLCD(0xC);
  2562                           
  2563                           ; BSR set to: 0
  2564                           ;incstack = 0
  2565   0019C0  0E0C               	movlw	12
  2566   0019C2  ECE1  F00B         	call	_ComandoLCD
  2567   0019C6  0012               	return		;funcret
  2568   0019C8                     __end_of_OcultarCursor:
  2569                           	callstack 0
  2570                           
  2571 ;; *************** function _ComandoLCD *****************
  2572 ;; Defined at:
  2573 ;;		line 127 in file "LibLCDXC8_1.h"
  2574 ;; Parameters:    Size  Location     Type
  2575 ;;  a               1    wreg     unsigned char 
  2576 ;; Auto vars:     Size  Location     Type
  2577 ;;  a               1    5[BANK0 ] unsigned char 
  2578 ;; Return value:  Size  Location     Type
  2579 ;;                  1    wreg      void 
  2580 ;; Registers used:
  2581 ;;		wreg, status,2, status,0, cstack
  2582 ;; Tracked objects:
  2583 ;;		On entry : 0/0
  2584 ;;		On exit  : 0/0
  2585 ;;		Unchanged: 0/0
  2586 ;; Data sizes:     COMRAM   BANK0   BANK1   BANK2   BANK3   BANK4   BANK5   BANK6   BANK7
  2587 ;;      Params:         0       0       0       0       0       0       0       0       0
  2588 ;;      Locals:         0       1       0       0       0       0       0       0       0
  2589 ;;      Temps:          0       0       0       0       0       0       0       0       0
  2590 ;;      Totals:         0       1       0       0       0       0       0       0       0
  2591 ;;Total ram usage:        1 bytes
  2592 ;; Hardware stack levels used: 1
  2593 ;; Hardware stack levels required when called: 12
  2594 ;; This function calls:
  2595 ;;		_BorraLCD
  2596 ;;		_CursorAInicio
  2597 ;;		_EnviaDato
  2598 ;;		_HabilitaLCD
  2599 ;;		_RetardoLCD
  2600 ;; This function is called by:
  2601 ;;		_OcultarCursor
  2602 ;;		_MostrarCursor
  2603 ;; This function uses a non-reentrant model
  2604 ;;
  2605                           
  2606                           	psect	text9
  2607   0017C2                     __ptext9:
  2608                           	callstack 0
  2609   0017C2                     _ComandoLCD:
  2610                           	callstack 16
  2611                           
  2612                           ;incstack = 0
  2613                           ;ComandoLCD@a stored from wreg
  2614   0017C2  0100               	movlb	0	; () banked
  2615   0017C4  6F65               	movwf	ComandoLCD@a& (0+255),b
  2616                           
  2617                           ;LibLCDXC8_1.h: 129: LATA4=0;
  2618   0017C6  9889               	bcf	3977,4,c	;volatile
  2619                           
  2620                           ;LibLCDXC8_1.h: 130: if(a==1)
  2621   0017C8  0100               	movlb	0	; () banked
  2622   0017CA  0565               	decf	ComandoLCD@a& (0+255),w,b
  2623   0017CC  A4D8               	btfss	status,2,c
  2624   0017CE  D003               	goto	l3360
  2625                           
  2626                           ; BSR set to: 0
  2627                           ;LibLCDXC8_1.h: 131: BorraLCD();
  2628   0017D0  ECA1  F00C         	call	_BorraLCD	;wreg free
  2629   0017D4  0012               	return	
  2630   0017D6                     l3360:
  2631                           
  2632                           ; BSR set to: 0
  2633                           ;LibLCDXC8_1.h: 132: else if((a&0b11111110)==2)
  2634   0017D6  5165               	movf	ComandoLCD@a& (0+255),w,b
  2635   0017D8  0BFE               	andlw	254
  2636   0017DA  0A02               	xorlw	2
  2637   0017DC  A4D8               	btfss	status,2,c
  2638   0017DE  D003               	goto	l3364
  2639                           
  2640                           ; BSR set to: 0
  2641                           ;LibLCDXC8_1.h: 133: CursorAInicio();
  2642   0017E0  ECE4  F00C         	call	_CursorAInicio	;wreg free
  2643   0017E4  0012               	return	
  2644   0017E6                     l3364:
  2645                           
  2646                           ; BSR set to: 0
  2647                           ;LibLCDXC8_1.h: 134: else{;LibLCDXC8_1.h: 135: EnviaDato(a);
  2648   0017E6  5165               	movf	ComandoLCD@a& (0+255),w,b
  2649   0017E8  ECC4  F00A         	call	_EnviaDato
  2650                           
  2651                           ;LibLCDXC8_1.h: 136: HabilitaLCD();
  2652   0017EC  ECC8  F00C         	call	_HabilitaLCD	;wreg free
  2653                           
  2654                           ;LibLCDXC8_1.h: 137: RetardoLCD(4);
  2655   0017F0  0E04               	movlw	4
  2656   0017F2  EC14  F00A         	call	_RetardoLCD
  2657   0017F6  0012               	return		;funcret
  2658   0017F8                     __end_of_ComandoLCD:
  2659                           	callstack 0
  2660                           
  2661 ;; *************** function _CursorAInicio *****************
  2662 ;; Defined at:
  2663 ;;		line 121 in file "LibLCDXC8_1.h"
  2664 ;; Parameters:    Size  Location     Type
  2665 ;;		None
  2666 ;; Auto vars:     Size  Location     Type
  2667 ;;		None
  2668 ;; Return value:  Size  Location     Type
  2669 ;;                  1    wreg      void 
  2670 ;; Registers used:
  2671 ;;		wreg, status,2, status,0, cstack
  2672 ;; Tracked objects:
  2673 ;;		On entry : 3F/0
  2674 ;;		On exit  : 0/0
  2675 ;;		Unchanged: 0/0
  2676 ;; Data sizes:     COMRAM   BANK0   BANK1   BANK2   BANK3   BANK4   BANK5   BANK6   BANK7
  2677 ;;      Params:         0       0       0       0       0       0       0       0       0
  2678 ;;      Locals:         0       0       0       0       0       0       0       0       0
  2679 ;;      Temps:          0       0       0       0       0       0       0       0       0
  2680 ;;      Totals:         0       0       0       0       0       0       0       0       0
  2681 ;;Total ram usage:        0 bytes
  2682 ;; Hardware stack levels used: 1
  2683 ;; Hardware stack levels required when called: 11
  2684 ;; This function calls:
  2685 ;;		_DireccionaLCD
  2686 ;; This function is called by:
  2687 ;;		_ComandoLCD
  2688 ;; This function uses a non-reentrant model
  2689 ;;
  2690                           
  2691                           	psect	text10
  2692   0019C8                     __ptext10:
  2693                           	callstack 0
  2694   0019C8                     _CursorAInicio:
  2695                           	callstack 16
  2696                           
  2697                           ; BSR set to: 0
  2698                           ;LibLCDXC8_1.h: 124: DireccionaLCD(0x80);
  2699                           
  2700                           ;incstack = 0
  2701   0019C8  0E80               	movlw	128
  2702   0019CA  EC7E  F00C         	call	_DireccionaLCD
  2703   0019CE  0012               	return		;funcret
  2704   0019D0                     __end_of_CursorAInicio:
  2705                           	callstack 0
  2706                           
  2707 ;; *************** function _MensajeLCD_Var *****************
  2708 ;; Defined at:
  2709 ;;		line 236 in file "LibLCDXC8_1.h"
  2710 ;; Parameters:    Size  Location     Type
  2711 ;;  a               1    5[BANK0 ] PTR unsigned char 
  2712 ;;		 -> STR_18(10), STR_17(6), STR_16(17), STR_15(12), 
  2713 ;;		 -> STR_14(13), STR_13(14), STR_12(13), STR_10(14), 
  2714 ;;		 -> STR_9(13), STR_8(15), STR_7(16), STR_6(11), 
  2715 ;;		 -> STR_5(12), STR_4(13), STR_3(13), STR_2(13), 
  2716 ;;		 -> STR_1(13), 
  2717 ;; Auto vars:     Size  Location     Type
  2718 ;;  i               2    7[BANK0 ] int 
  2719 ;; Return value:  Size  Location     Type
  2720 ;;                  1    wreg      void 
  2721 ;; Registers used:
  2722 ;;		wreg, status,2, status,0, tblptrl, tblptrh, tblptru, cstack
  2723 ;; Tracked objects:
  2724 ;;		On entry : 3F/0
  2725 ;;		On exit  : 3F/0
  2726 ;;		Unchanged: 0/0
  2727 ;; Data sizes:     COMRAM   BANK0   BANK1   BANK2   BANK3   BANK4   BANK5   BANK6   BANK7
  2728 ;;      Params:         0       1       0       0       0       0       0       0       0
  2729 ;;      Locals:         0       2       0       0       0       0       0       0       0
  2730 ;;      Temps:          0       1       0       0       0       0       0       0       0
  2731 ;;      Totals:         0       4       0       0       0       0       0       0       0
  2732 ;;Total ram usage:        4 bytes
  2733 ;; Hardware stack levels used: 1
  2734 ;; Hardware stack levels required when called: 11
  2735 ;; This function calls:
  2736 ;;		_EscribeLCD_c
  2737 ;; This function is called by:
  2738 ;;		_main
  2739 ;;		_Bienvenida
  2740 ;;		_PreguntaAlUsuario
  2741 ;; This function uses a non-reentrant model
  2742 ;;
  2743                           
  2744                           	psect	text11
  2745   00165C                     __ptext11:
  2746                           	callstack 0
  2747   00165C                     _MensajeLCD_Var:
  2748                           	callstack 18
  2749                           
  2750                           ; BSR set to: 0
  2751                           ;LibLCDXC8_1.h: 241: for (int i=0;a[i] != '\0';i++){
  2752                           
  2753                           ;incstack = 0
  2754   00165C  0E00               	movlw	0
  2755   00165E  6F68               	movwf	(MensajeLCD_Var@i+1)& (0+255),b
  2756   001660  0E00               	movlw	0
  2757   001662  6F67               	movwf	MensajeLCD_Var@i& (0+255),b
  2758   001664  D00E               	goto	l3442
  2759   001666                     l3438:
  2760                           
  2761                           ; BSR set to: 0
  2762                           ;LibLCDXC8_1.h: 242: EscribeLCD_c(a[i]);
  2763   001666  5165               	movf	MensajeLCD_Var@a& (0+255),w,b
  2764   001668  2567               	addwf	MensajeLCD_Var@i& (0+255),w,b
  2765   00166A  6F66               	movwf	??_MensajeLCD_Var& (0+255),b
  2766   00166C  C066  FFF6         	movff	??_MensajeLCD_Var,tblptrl
  2767   001670                     	if	1	;There is more than 1 active tblptr byte
  2768   001670  0E08               	movlw	high __smallconst
  2769   001672  6EF7               	movwf	tblptrh,c
  2770   001674                     	endif
  2771   001674                     	if	0	;tblptru may be non-zero
  2772   001674                     	endif
  2773   001674                     	if	0	;tblptru may be non-zero
  2774   001674                     	endif
  2775   001674  0008               	tblrd		*
  2776   001676  50F5               	movf	tablat,w,c
  2777   001678  EC71  F00C         	call	_EscribeLCD_c
  2778   00167C  0100               	movlb	0	; () banked
  2779   00167E  4B67               	infsnz	MensajeLCD_Var@i& (0+255),f,b
  2780   001680  2B68               	incf	(MensajeLCD_Var@i+1)& (0+255),f,b
  2781   001682                     l3442:
  2782                           
  2783                           ; BSR set to: 0
  2784   001682  5165               	movf	MensajeLCD_Var@a& (0+255),w,b
  2785   001684  2567               	addwf	MensajeLCD_Var@i& (0+255),w,b
  2786   001686  6F66               	movwf	??_MensajeLCD_Var& (0+255),b
  2787   001688  C066  FFF6         	movff	??_MensajeLCD_Var,tblptrl
  2788   00168C                     	if	1	;There is more than 1 active tblptr byte
  2789   00168C  0E08               	movlw	high __smallconst
  2790   00168E  6EF7               	movwf	tblptrh,c
  2791   001690                     	endif
  2792   001690                     	if	0	;tblptru may be non-zero
  2793   001690                     	endif
  2794   001690                     	if	0	;tblptru may be non-zero
  2795   001690                     	endif
  2796   001690  0008               	tblrd		*
  2797   001692  50F5               	movf	tablat,w,c
  2798   001694  0900               	iorlw	0
  2799   001696  B4D8               	btfsc	status,2,c
  2800   001698  0012               	return	
  2801   00169A  D7E5               	goto	l3438
  2802   00169C                     __end_of_MensajeLCD_Var:
  2803                           	callstack 0
  2804                           
  2805 ;; *************** function _EscribeLCD_c *****************
  2806 ;; Defined at:
  2807 ;;		line 140 in file "LibLCDXC8_1.h"
  2808 ;; Parameters:    Size  Location     Type
  2809 ;;  a               1    wreg     unsigned char 
  2810 ;; Auto vars:     Size  Location     Type
  2811 ;;  a               1    4[BANK0 ] unsigned char 
  2812 ;; Return value:  Size  Location     Type
  2813 ;;                  1    wreg      void 
  2814 ;; Registers used:
  2815 ;;		wreg, status,2, status,0, cstack
  2816 ;; Tracked objects:
  2817 ;;		On entry : 0/0
  2818 ;;		On exit  : 0/0
  2819 ;;		Unchanged: 0/0
  2820 ;; Data sizes:     COMRAM   BANK0   BANK1   BANK2   BANK3   BANK4   BANK5   BANK6   BANK7
  2821 ;;      Params:         0       0       0       0       0       0       0       0       0
  2822 ;;      Locals:         0       1       0       0       0       0       0       0       0
  2823 ;;      Temps:          0       0       0       0       0       0       0       0       0
  2824 ;;      Totals:         0       1       0       0       0       0       0       0       0
  2825 ;;Total ram usage:        1 bytes
  2826 ;; Hardware stack levels used: 1
  2827 ;; Hardware stack levels required when called: 10
  2828 ;; This function calls:
  2829 ;;		_EnviaDato
  2830 ;;		_HabilitaLCD
  2831 ;;		_RetardoLCD
  2832 ;; This function is called by:
  2833 ;;		_MensajeLCD_Var
  2834 ;;		_Bienvenida
  2835 ;;		_PreguntaAlUsuario
  2836 ;; This function uses a non-reentrant model
  2837 ;;
  2838                           
  2839                           	psect	text12
  2840   0018E2                     __ptext12:
  2841                           	callstack 0
  2842   0018E2                     _EscribeLCD_c:
  2843                           	callstack 18
  2844                           
  2845                           ; BSR set to: 0
  2846                           ;incstack = 0
  2847                           ;EscribeLCD_c@a stored from wreg
  2848   0018E2  0100               	movlb	0	; () banked
  2849   0018E4  6F64               	movwf	EscribeLCD_c@a& (0+255),b
  2850                           
  2851                           ;LibLCDXC8_1.h: 144: LATA4=1;
  2852   0018E6  8889               	bsf	3977,4,c	;volatile
  2853                           
  2854                           ;LibLCDXC8_1.h: 145: EnviaDato(a);
  2855   0018E8  0100               	movlb	0	; () banked
  2856   0018EA  5164               	movf	EscribeLCD_c@a& (0+255),w,b
  2857   0018EC  ECC4  F00A         	call	_EnviaDato
  2858                           
  2859                           ;LibLCDXC8_1.h: 146: HabilitaLCD();
  2860   0018F0  ECC8  F00C         	call	_HabilitaLCD	;wreg free
  2861                           
  2862                           ;LibLCDXC8_1.h: 147: RetardoLCD(4);
  2863   0018F4  0E04               	movlw	4
  2864   0018F6  EC14  F00A         	call	_RetardoLCD
  2865   0018FA  0012               	return		;funcret
  2866   0018FC                     __end_of_EscribeLCD_c:
  2867                           	callstack 0
  2868                           
  2869 ;; *************** function _InicializaLCD *****************
  2870 ;; Defined at:
  2871 ;;		line 73 in file "LibLCDXC8_1.h"
  2872 ;; Parameters:    Size  Location     Type
  2873 ;;		None
  2874 ;; Auto vars:     Size  Location     Type
  2875 ;;		None
  2876 ;; Return value:  Size  Location     Type
  2877 ;;                  1    wreg      void 
  2878 ;; Registers used:
  2879 ;;		wreg, status,2, status,0, cstack
  2880 ;; Tracked objects:
  2881 ;;		On entry : 3F/0
  2882 ;;		On exit  : 0/0
  2883 ;;		Unchanged: 0/0
  2884 ;; Data sizes:     COMRAM   BANK0   BANK1   BANK2   BANK3   BANK4   BANK5   BANK6   BANK7
  2885 ;;      Params:         0       0       0       0       0       0       0       0       0
  2886 ;;      Locals:         0       0       0       0       0       0       0       0       0
  2887 ;;      Temps:          0       0       0       0       0       0       0       0       0
  2888 ;;      Totals:         0       0       0       0       0       0       0       0       0
  2889 ;;Total ram usage:        0 bytes
  2890 ;; Hardware stack levels used: 1
  2891 ;; Hardware stack levels required when called: 11
  2892 ;; This function calls:
  2893 ;;		_BorraLCD
  2894 ;;		_EnviaDato
  2895 ;;		_HabilitaLCD
  2896 ;;		_RetardoLCD
  2897 ;; This function is called by:
  2898 ;;		_Bienvenida
  2899 ;; This function uses a non-reentrant model
  2900 ;;
  2901                           
  2902                           	psect	text13
  2903   00132C                     __ptext13:
  2904                           	callstack 0
  2905   00132C                     _InicializaLCD:
  2906                           	callstack 18
  2907                           
  2908                           ; BSR set to: 0
  2909                           ;LibLCDXC8_1.h: 75: LATA4=0;
  2910                           
  2911                           ;incstack = 0
  2912   00132C  9889               	bcf	3977,4,c	;volatile
  2913                           
  2914                           ; BSR set to: 0
  2915                           ;LibLCDXC8_1.h: 76: if(interfaz==4)
  2916   00132E  0E04               	movlw	4
  2917   001330  1835               	xorwf	_interfaz^0,w,c
  2918   001332  A4D8               	btfss	status,2,c
  2919   001334  D004               	goto	l3388
  2920                           
  2921                           ; BSR set to: 0
  2922                           ;LibLCDXC8_1.h: 77: LATD=(LATD & 0b00001111) | 0x30;
  2923   001336  508C               	movf	140,w,c	;volatile
  2924   001338  0B0F               	andlw	15
  2925   00133A  0930               	iorlw	48
  2926   00133C  D001               	goto	L5
  2927   00133E                     l3388:
  2928                           
  2929                           ; BSR set to: 0
  2930                           ;LibLCDXC8_1.h: 78: else;LibLCDXC8_1.h: 79: LATD=0x3F;
  2931   00133E  0E3F               	movlw	63
  2932   001340                     L5:
  2933   001340  6E8C               	movwf	140,c	;volatile
  2934                           
  2935                           ; BSR set to: 0
  2936                           ;LibLCDXC8_1.h: 80: HabilitaLCD();
  2937   001342  ECC8  F00C         	call	_HabilitaLCD	;wreg free
  2938                           
  2939                           ;LibLCDXC8_1.h: 81: RetardoLCD(1);
  2940   001346  0E01               	movlw	1
  2941   001348  EC14  F00A         	call	_RetardoLCD
  2942                           
  2943                           ;LibLCDXC8_1.h: 82: if(interfaz==4)
  2944   00134C  0E04               	movlw	4
  2945   00134E  1835               	xorwf	_interfaz^0,w,c
  2946   001350  A4D8               	btfss	status,2,c
  2947   001352  D004               	goto	l3398
  2948                           
  2949                           ;LibLCDXC8_1.h: 83: LATD=(LATD & 0b00001111) | 0x30;
  2950   001354  508C               	movf	140,w,c	;volatile
  2951   001356  0B0F               	andlw	15
  2952   001358  0930               	iorlw	48
  2953   00135A  D001               	goto	L6
  2954   00135C                     l3398:
  2955                           
  2956                           ;LibLCDXC8_1.h: 84: else;LibLCDXC8_1.h: 85: LATD=0x3F;
  2957   00135C  0E3F               	movlw	63
  2958   00135E                     L6:
  2959   00135E  6E8C               	movwf	140,c	;volatile
  2960                           
  2961                           ;LibLCDXC8_1.h: 86: HabilitaLCD();
  2962   001360  ECC8  F00C         	call	_HabilitaLCD	;wreg free
  2963                           
  2964                           ;LibLCDXC8_1.h: 87: RetardoLCD(3);
  2965   001364  0E03               	movlw	3
  2966   001366  EC14  F00A         	call	_RetardoLCD
  2967                           
  2968                           ;LibLCDXC8_1.h: 88: if(interfaz==4)
  2969   00136A  0E04               	movlw	4
  2970   00136C  1835               	xorwf	_interfaz^0,w,c
  2971   00136E  A4D8               	btfss	status,2,c
  2972   001370  D004               	goto	l3408
  2973                           
  2974                           ;LibLCDXC8_1.h: 89: LATD=(LATD & 0b00001111) | 0x30;
  2975   001372  508C               	movf	140,w,c	;volatile
  2976   001374  0B0F               	andlw	15
  2977   001376  0930               	iorlw	48
  2978   001378  D001               	goto	L7
  2979   00137A                     l3408:
  2980                           
  2981                           ;LibLCDXC8_1.h: 90: else;LibLCDXC8_1.h: 91: LATD=0x3F;
  2982   00137A  0E3F               	movlw	63
  2983   00137C                     L7:
  2984   00137C  6E8C               	movwf	140,c	;volatile
  2985                           
  2986                           ;LibLCDXC8_1.h: 92: HabilitaLCD();
  2987   00137E  ECC8  F00C         	call	_HabilitaLCD	;wreg free
  2988                           
  2989                           ;LibLCDXC8_1.h: 93: RetardoLCD(4);
  2990   001382  0E04               	movlw	4
  2991   001384  EC14  F00A         	call	_RetardoLCD
  2992                           
  2993                           ;LibLCDXC8_1.h: 94: if(interfaz==4){
  2994   001388  0E04               	movlw	4
  2995   00138A  1835               	xorwf	_interfaz^0,w,c
  2996   00138C  A4D8               	btfss	status,2,c
  2997   00138E  D011               	goto	l3428
  2998                           
  2999                           ;LibLCDXC8_1.h: 95: LATD=(LATD & 0b00001111) | 0x20;
  3000   001390  508C               	movf	140,w,c	;volatile
  3001   001392  0B0F               	andlw	15
  3002   001394  0920               	iorlw	32
  3003   001396  6E8C               	movwf	140,c	;volatile
  3004                           
  3005                           ;LibLCDXC8_1.h: 96: HabilitaLCD();
  3006   001398  ECC8  F00C         	call	_HabilitaLCD	;wreg free
  3007                           
  3008                           ;LibLCDXC8_1.h: 97: RetardoLCD(4);
  3009   00139C  0E04               	movlw	4
  3010   00139E  EC14  F00A         	call	_RetardoLCD
  3011                           
  3012                           ;LibLCDXC8_1.h: 98: EnviaDato(0x2F);
  3013   0013A2  0E2F               	movlw	47
  3014   0013A4  ECC4  F00A         	call	_EnviaDato
  3015                           
  3016                           ;LibLCDXC8_1.h: 99: HabilitaLCD();
  3017   0013A8  ECC8  F00C         	call	_HabilitaLCD	;wreg free
  3018                           
  3019                           ;LibLCDXC8_1.h: 100: RetardoLCD(4);
  3020   0013AC  0E04               	movlw	4
  3021   0013AE  EC14  F00A         	call	_RetardoLCD
  3022   0013B2                     l3428:
  3023                           
  3024                           ;LibLCDXC8_1.h: 101: };LibLCDXC8_1.h: 102: BorraLCD();
  3025   0013B2  ECA1  F00C         	call	_BorraLCD	;wreg free
  3026                           
  3027                           ;LibLCDXC8_1.h: 103: EnviaDato(0xF);
  3028   0013B6  0E0F               	movlw	15
  3029   0013B8  ECC4  F00A         	call	_EnviaDato
  3030                           
  3031                           ;LibLCDXC8_1.h: 104: HabilitaLCD();
  3032   0013BC  ECC8  F00C         	call	_HabilitaLCD	;wreg free
  3033                           
  3034                           ;LibLCDXC8_1.h: 105: RetardoLCD(4);
  3035   0013C0  0E04               	movlw	4
  3036   0013C2  EC14  F00A         	call	_RetardoLCD
  3037   0013C6  0012               	return		;funcret
  3038   0013C8                     __end_of_InicializaLCD:
  3039                           	callstack 0
  3040                           
  3041 ;; *************** function _BorraLCD *****************
  3042 ;; Defined at:
  3043 ;;		line 114 in file "LibLCDXC8_1.h"
  3044 ;; Parameters:    Size  Location     Type
  3045 ;;		None
  3046 ;; Auto vars:     Size  Location     Type
  3047 ;;		None
  3048 ;; Return value:  Size  Location     Type
  3049 ;;                  1    wreg      void 
  3050 ;; Registers used:
  3051 ;;		wreg, status,2, status,0, cstack
  3052 ;; Tracked objects:
  3053 ;;		On entry : 0/0
  3054 ;;		On exit  : 0/0
  3055 ;;		Unchanged: 0/0
  3056 ;; Data sizes:     COMRAM   BANK0   BANK1   BANK2   BANK3   BANK4   BANK5   BANK6   BANK7
  3057 ;;      Params:         0       0       0       0       0       0       0       0       0
  3058 ;;      Locals:         0       0       0       0       0       0       0       0       0
  3059 ;;      Temps:          0       0       0       0       0       0       0       0       0
  3060 ;;      Totals:         0       0       0       0       0       0       0       0       0
  3061 ;;Total ram usage:        0 bytes
  3062 ;; Hardware stack levels used: 1
  3063 ;; Hardware stack levels required when called: 10
  3064 ;; This function calls:
  3065 ;;		_EnviaDato
  3066 ;;		_HabilitaLCD
  3067 ;;		_RetardoLCD
  3068 ;; This function is called by:
  3069 ;;		_InicializaLCD
  3070 ;;		_ComandoLCD
  3071 ;;		_main
  3072 ;;		_PreguntaAlUsuario
  3073 ;; This function uses a non-reentrant model
  3074 ;;
  3075                           
  3076                           	psect	text14
  3077   001942                     __ptext14:
  3078                           	callstack 0
  3079   001942                     _BorraLCD:
  3080                           	callstack 17
  3081                           
  3082                           ;LibLCDXC8_1.h: 116: LATA4=0;
  3083                           
  3084                           ;incstack = 0
  3085   001942  9889               	bcf	3977,4,c	;volatile
  3086                           
  3087                           ;LibLCDXC8_1.h: 117: EnviaDato(0x01);
  3088   001944  0E01               	movlw	1
  3089   001946  ECC4  F00A         	call	_EnviaDato
  3090                           
  3091                           ;LibLCDXC8_1.h: 118: HabilitaLCD();
  3092   00194A  ECC8  F00C         	call	_HabilitaLCD	;wreg free
  3093                           
  3094                           ;LibLCDXC8_1.h: 119: RetardoLCD(2);
  3095   00194E  0E02               	movlw	2
  3096   001950  EC14  F00A         	call	_RetardoLCD
  3097   001954  0012               	return		;funcret
  3098   001956                     __end_of_BorraLCD:
  3099                           	callstack 0
  3100                           
  3101 ;; *************** function _DesplazaPantallaD *****************
  3102 ;; Defined at:
  3103 ;;		line 262 in file "LibLCDXC8_1.h"
  3104 ;; Parameters:    Size  Location     Type
  3105 ;;		None
  3106 ;; Auto vars:     Size  Location     Type
  3107 ;;		None
  3108 ;; Return value:  Size  Location     Type
  3109 ;;                  1    wreg      void 
  3110 ;; Registers used:
  3111 ;;		wreg, status,2, status,0, cstack
  3112 ;; Tracked objects:
  3113 ;;		On entry : 0/0
  3114 ;;		On exit  : 0/0
  3115 ;;		Unchanged: 0/0
  3116 ;; Data sizes:     COMRAM   BANK0   BANK1   BANK2   BANK3   BANK4   BANK5   BANK6   BANK7
  3117 ;;      Params:         0       0       0       0       0       0       0       0       0
  3118 ;;      Locals:         0       0       0       0       0       0       0       0       0
  3119 ;;      Temps:          0       0       0       0       0       0       0       0       0
  3120 ;;      Totals:         0       0       0       0       0       0       0       0       0
  3121 ;;Total ram usage:        0 bytes
  3122 ;; Hardware stack levels used: 1
  3123 ;; Hardware stack levels required when called: 10
  3124 ;; This function calls:
  3125 ;;		_EnviaDato
  3126 ;;		_HabilitaLCD
  3127 ;;		_RetardoLCD
  3128 ;; This function is called by:
  3129 ;;		_Bienvenida
  3130 ;; This function uses a non-reentrant model
  3131 ;;
  3132                           
  3133                           	psect	text15
  3134   001956                     __ptext15:
  3135                           	callstack 0
  3136   001956                     _DesplazaPantallaD:
  3137                           	callstack 19
  3138                           
  3139                           ;LibLCDXC8_1.h: 264: LATA4=0;
  3140                           
  3141                           ;incstack = 0
  3142   001956  9889               	bcf	3977,4,c	;volatile
  3143                           
  3144                           ;LibLCDXC8_1.h: 265: EnviaDato(28);
  3145   001958  0E1C               	movlw	28
  3146   00195A  ECC4  F00A         	call	_EnviaDato
  3147                           
  3148                           ;LibLCDXC8_1.h: 266: HabilitaLCD();
  3149   00195E  ECC8  F00C         	call	_HabilitaLCD	;wreg free
  3150                           
  3151                           ;LibLCDXC8_1.h: 267: RetardoLCD(4);
  3152   001962  0E04               	movlw	4
  3153   001964  EC14  F00A         	call	_RetardoLCD
  3154   001968  0012               	return		;funcret
  3155   00196A                     __end_of_DesplazaPantallaD:
  3156                           	callstack 0
  3157                           
  3158 ;; *************** function _CrearCaracter *****************
  3159 ;; Defined at:
  3160 ;;		line 309 in file "LibLCDXC8_1.h"
  3161 ;; Parameters:    Size  Location     Type
  3162 ;;  arreglo         1    5[BANK0 ] PTR unsigned char 
  3163 ;;		 -> Marco(8), Estrella(8), 
  3164 ;;  posicionCGRA    1    6[BANK0 ] unsigned char 
  3165 ;; Auto vars:     Size  Location     Type
  3166 ;;  i               2    7[BANK0 ] int 
  3167 ;; Return value:  Size  Location     Type
  3168 ;;                  1    wreg      void 
  3169 ;; Registers used:
  3170 ;;		wreg, fsr2l, fsr2h, status,2, status,0, prodl, prodh, cstack
  3171 ;; Tracked objects:
  3172 ;;		On entry : 3F/0
  3173 ;;		On exit  : 0/0
  3174 ;;		Unchanged: 0/0
  3175 ;; Data sizes:     COMRAM   BANK0   BANK1   BANK2   BANK3   BANK4   BANK5   BANK6   BANK7
  3176 ;;      Params:         0       2       0       0       0       0       0       0       0
  3177 ;;      Locals:         0       2       0       0       0       0       0       0       0
  3178 ;;      Temps:          0       0       0       0       0       0       0       0       0
  3179 ;;      Totals:         0       4       0       0       0       0       0       0       0
  3180 ;;Total ram usage:        4 bytes
  3181 ;; Hardware stack levels used: 1
  3182 ;; Hardware stack levels required when called: 11
  3183 ;; This function calls:
  3184 ;;		_DireccionaLCD
  3185 ;;		_EnviaDato
  3186 ;;		_HabilitaLCD
  3187 ;;		_RetardoLCD
  3188 ;; This function is called by:
  3189 ;;		_Bienvenida
  3190 ;;		_PreguntaAlUsuario
  3191 ;; This function uses a non-reentrant model
  3192 ;;
  3193                           
  3194                           	psect	text16
  3195   0013C8                     __ptext16:
  3196                           	callstack 0
  3197   0013C8                     _CrearCaracter:
  3198                           	callstack 18
  3199                           
  3200                           ; BSR set to: 0
  3201                           ;LibLCDXC8_1.h: 310: LATA4=0;
  3202                           
  3203                           ;incstack = 0
  3204   0013C8  9889               	bcf	3977,4,c	;volatile
  3205                           
  3206                           ; BSR set to: 0
  3207                           ;LibLCDXC8_1.h: 311: EnviaDato(0x40|(posicionCGRAM*8));
  3208   0013CA  5166               	movf	CrearCaracter@posicionCGRAM& (0+255),w,b
  3209   0013CC  0D08               	mullw	8
  3210   0013CE  50F3               	movf	243,w,c
  3211   0013D0  0940               	iorlw	64
  3212   0013D2  ECC4  F00A         	call	_EnviaDato
  3213                           
  3214                           ;LibLCDXC8_1.h: 312: HabilitaLCD();
  3215   0013D6  ECC8  F00C         	call	_HabilitaLCD	;wreg free
  3216                           
  3217                           ;LibLCDXC8_1.h: 313: RetardoLCD(4);
  3218   0013DA  0E04               	movlw	4
  3219   0013DC  EC14  F00A         	call	_RetardoLCD
  3220                           
  3221                           ;LibLCDXC8_1.h: 314: LATA4=1;
  3222   0013E0  8889               	bsf	3977,4,c	;volatile
  3223                           
  3224                           ;LibLCDXC8_1.h: 315: RetardoLCD(2);
  3225   0013E2  0E02               	movlw	2
  3226   0013E4  EC14  F00A         	call	_RetardoLCD
  3227                           
  3228                           ;LibLCDXC8_1.h: 316: for (int i=0;i<8;i++){
  3229   0013E8  0E00               	movlw	0
  3230   0013EA  0100               	movlb	0	; () banked
  3231   0013EC  6F68               	movwf	(CrearCaracter@i+1)& (0+255),b
  3232   0013EE  0E00               	movlw	0
  3233   0013F0  6F67               	movwf	CrearCaracter@i& (0+255),b
  3234   0013F2                     l3470:
  3235                           
  3236                           ; BSR set to: 0
  3237                           ;LibLCDXC8_1.h: 317: EnviaDato(arreglo[i]);
  3238   0013F2  5165               	movf	CrearCaracter@arreglo& (0+255),w,b
  3239   0013F4  2567               	addwf	CrearCaracter@i& (0+255),w,b
  3240   0013F6  6ED9               	movwf	fsr2l,c
  3241   0013F8  6ADA               	clrf	fsr2h,c
  3242   0013FA  50DF               	movf	indf2,w,c
  3243   0013FC  ECC4  F00A         	call	_EnviaDato
  3244                           
  3245                           ;LibLCDXC8_1.h: 318: HabilitaLCD();
  3246   001400  ECC8  F00C         	call	_HabilitaLCD	;wreg free
  3247                           
  3248                           ;LibLCDXC8_1.h: 319: RetardoLCD(4);
  3249   001404  0E04               	movlw	4
  3250   001406  EC14  F00A         	call	_RetardoLCD
  3251   00140A  0100               	movlb	0	; () banked
  3252   00140C  4B67               	infsnz	CrearCaracter@i& (0+255),f,b
  3253   00140E  2B68               	incf	(CrearCaracter@i+1)& (0+255),f,b
  3254                           
  3255                           ; BSR set to: 0
  3256   001410  BF68               	btfsc	(CrearCaracter@i+1)& (0+255),7,b
  3257   001412  D7EF               	goto	l3470
  3258   001414  5168               	movf	(CrearCaracter@i+1)& (0+255),w,b
  3259   001416  E104               	bnz	u2310
  3260   001418  0E08               	movlw	8
  3261   00141A  5D67               	subwf	CrearCaracter@i& (0+255),w,b
  3262   00141C  A0D8               	btfss	status,0,c
  3263   00141E  D7E9               	goto	l3470
  3264   001420                     u2310:
  3265                           
  3266                           ; BSR set to: 0
  3267                           ;LibLCDXC8_1.h: 320: };LibLCDXC8_1.h: 321: DireccionaLCD(0x80);
  3268   001420  0E80               	movlw	128
  3269   001422  EC7E  F00C         	call	_DireccionaLCD
  3270   001426  0012               	return		;funcret
  3271   001428                     __end_of_CrearCaracter:
  3272                           	callstack 0
  3273                           
  3274 ;; *************** function _DireccionaLCD *****************
  3275 ;; Defined at:
  3276 ;;		line 245 in file "LibLCDXC8_1.h"
  3277 ;; Parameters:    Size  Location     Type
  3278 ;;  a               1    wreg     unsigned char 
  3279 ;; Auto vars:     Size  Location     Type
  3280 ;;  a               1    4[BANK0 ] unsigned char 
  3281 ;; Return value:  Size  Location     Type
  3282 ;;                  1    wreg      void 
  3283 ;; Registers used:
  3284 ;;		wreg, status,2, status,0, cstack
  3285 ;; Tracked objects:
  3286 ;;		On entry : 0/0
  3287 ;;		On exit  : 0/0
  3288 ;;		Unchanged: 0/0
  3289 ;; Data sizes:     COMRAM   BANK0   BANK1   BANK2   BANK3   BANK4   BANK5   BANK6   BANK7
  3290 ;;      Params:         0       0       0       0       0       0       0       0       0
  3291 ;;      Locals:         0       1       0       0       0       0       0       0       0
  3292 ;;      Temps:          0       0       0       0       0       0       0       0       0
  3293 ;;      Totals:         0       1       0       0       0       0       0       0       0
  3294 ;;Total ram usage:        1 bytes
  3295 ;; Hardware stack levels used: 1
  3296 ;; Hardware stack levels required when called: 10
  3297 ;; This function calls:
  3298 ;;		_EnviaDato
  3299 ;;		_HabilitaLCD
  3300 ;;		_RetardoLCD
  3301 ;; This function is called by:
  3302 ;;		_CursorAInicio
  3303 ;;		_CrearCaracter
  3304 ;;		_main
  3305 ;;		_Bienvenida
  3306 ;;		_PreguntaAlUsuario
  3307 ;; This function uses a non-reentrant model
  3308 ;;
  3309                           
  3310                           	psect	text17
  3311   0018FC                     __ptext17:
  3312                           	callstack 0
  3313   0018FC                     _DireccionaLCD:
  3314                           	callstack 16
  3315                           
  3316                           ;incstack = 0
  3317                           ;DireccionaLCD@a stored from wreg
  3318   0018FC  0100               	movlb	0	; () banked
  3319   0018FE  6F64               	movwf	DireccionaLCD@a& (0+255),b
  3320                           
  3321                           ;LibLCDXC8_1.h: 248: LATA4=0;
  3322   001900  9889               	bcf	3977,4,c	;volatile
  3323                           
  3324                           ;LibLCDXC8_1.h: 249: EnviaDato(a);
  3325   001902  0100               	movlb	0	; () banked
  3326   001904  5164               	movf	DireccionaLCD@a& (0+255),w,b
  3327   001906  ECC4  F00A         	call	_EnviaDato
  3328                           
  3329                           ;LibLCDXC8_1.h: 250: HabilitaLCD();
  3330   00190A  ECC8  F00C         	call	_HabilitaLCD	;wreg free
  3331                           
  3332                           ;LibLCDXC8_1.h: 251: RetardoLCD(4);
  3333   00190E  0E04               	movlw	4
  3334   001910  EC14  F00A         	call	_RetardoLCD
  3335   001914  0012               	return		;funcret
  3336   001916                     __end_of_DireccionaLCD:
  3337                           	callstack 0
  3338                           
  3339 ;; *************** function _EnviaDato *****************
  3340 ;; Defined at:
  3341 ;;		line 61 in file "LibLCDXC8_1.h"
  3342 ;; Parameters:    Size  Location     Type
  3343 ;;  a               1    wreg     unsigned char 
  3344 ;; Auto vars:     Size  Location     Type
  3345 ;;  a               1    3[BANK0 ] unsigned char 
  3346 ;; Return value:  Size  Location     Type
  3347 ;;                  1    wreg      void 
  3348 ;; Registers used:
  3349 ;;		wreg, status,2, status,0, cstack
  3350 ;; Tracked objects:
  3351 ;;		On entry : 0/0
  3352 ;;		On exit  : 0/0
  3353 ;;		Unchanged: 0/0
  3354 ;; Data sizes:     COMRAM   BANK0   BANK1   BANK2   BANK3   BANK4   BANK5   BANK6   BANK7
  3355 ;;      Params:         0       0       0       0       0       0       0       0       0
  3356 ;;      Locals:         0       1       0       0       0       0       0       0       0
  3357 ;;      Temps:          0       1       0       0       0       0       0       0       0
  3358 ;;      Totals:         0       2       0       0       0       0       0       0       0
  3359 ;;Total ram usage:        2 bytes
  3360 ;; Hardware stack levels used: 1
  3361 ;; Hardware stack levels required when called: 9
  3362 ;; This function calls:
  3363 ;;		_HabilitaLCD
  3364 ;;		_RetardoLCD
  3365 ;; This function is called by:
  3366 ;;		_InicializaLCD
  3367 ;;		_BorraLCD
  3368 ;;		_ComandoLCD
  3369 ;;		_EscribeLCD_c
  3370 ;;		_EscribeLCD_n8
  3371 ;;		_DireccionaLCD
  3372 ;;		_DesplazaPantallaD
  3373 ;;		_CrearCaracter
  3374 ;; This function uses a non-reentrant model
  3375 ;;
  3376                           
  3377                           	psect	text18
  3378   001588                     __ptext18:
  3379                           	callstack 0
  3380   001588                     _EnviaDato:
  3381                           	callstack 18
  3382                           
  3383                           ;incstack = 0
  3384                           ;EnviaDato@a stored from wreg
  3385   001588  0100               	movlb	0	; () banked
  3386   00158A  6F63               	movwf	EnviaDato@a& (0+255),b
  3387                           
  3388                           ;LibLCDXC8_1.h: 62: if(interfaz==4){
  3389   00158C  0E04               	movlw	4
  3390   00158E  1835               	xorwf	_interfaz^0,w,c
  3391   001590  A4D8               	btfss	status,2,c
  3392   001592  D019               	goto	l3332
  3393                           
  3394                           ;LibLCDXC8_1.h: 63: LATD=(LATD & 0b00001111) | (a & 0b11110000);
  3395   001594  C063  F062         	movff	EnviaDato@a,??_EnviaDato
  3396   001598  0EF0               	movlw	240
  3397   00159A  0100               	movlb	0	; () banked
  3398   00159C  1762               	andwf	??_EnviaDato& (0+255),f,b
  3399   00159E  508C               	movf	140,w,c	;volatile
  3400   0015A0  0B0F               	andlw	15
  3401   0015A2  1162               	iorwf	??_EnviaDato& (0+255),w,b
  3402   0015A4  6E8C               	movwf	140,c	;volatile
  3403                           
  3404                           ; BSR set to: 0
  3405                           ;LibLCDXC8_1.h: 64: HabilitaLCD();
  3406   0015A6  ECC8  F00C         	call	_HabilitaLCD	;wreg free
  3407                           
  3408                           ;LibLCDXC8_1.h: 65: RetardoLCD(1);
  3409   0015AA  0E01               	movlw	1
  3410   0015AC  EC14  F00A         	call	_RetardoLCD
  3411                           
  3412                           ;LibLCDXC8_1.h: 66: LATD=(LATD & 0b00001111) | (a<<4);
  3413   0015B0  C063  F062         	movff	EnviaDato@a,??_EnviaDato
  3414   0015B4  0100               	movlb	0	; () banked
  3415   0015B6  3B62               	swapf	??_EnviaDato& (0+255),f,b
  3416   0015B8  0EF0               	movlw	240
  3417   0015BA  1762               	andwf	??_EnviaDato& (0+255),f,b
  3418   0015BC  508C               	movf	140,w,c	;volatile
  3419   0015BE  0B0F               	andlw	15
  3420   0015C0  1162               	iorwf	??_EnviaDato& (0+255),w,b
  3421   0015C2  6E8C               	movwf	140,c	;volatile
  3422                           
  3423                           ;LibLCDXC8_1.h: 69: }else if(interfaz==8){
  3424   0015C4  0012               	return	
  3425   0015C6                     l3332:
  3426   0015C6  0E08               	movlw	8
  3427   0015C8  1835               	xorwf	_interfaz^0,w,c
  3428   0015CA  A4D8               	btfss	status,2,c
  3429   0015CC  0012               	return	
  3430                           
  3431                           ;LibLCDXC8_1.h: 70: LATD=a;
  3432   0015CE  C063  FF8C         	movff	EnviaDato@a,3980	;volatile
  3433   0015D2  0012               	return		;funcret
  3434   0015D4                     __end_of_EnviaDato:
  3435                           	callstack 0
  3436                           
  3437 ;; *************** function _RetardoLCD *****************
  3438 ;; Defined at:
  3439 ;;		line 290 in file "LibLCDXC8_1.h"
  3440 ;; Parameters:    Size  Location     Type
  3441 ;;  a               1    wreg     unsigned char 
  3442 ;; Auto vars:     Size  Location     Type
  3443 ;;  a               1    1[BANK0 ] unsigned char 
  3444 ;; Return value:  Size  Location     Type
  3445 ;;                  1    wreg      void 
  3446 ;; Registers used:
  3447 ;;		wreg, status,2, status,0
  3448 ;; Tracked objects:
  3449 ;;		On entry : 0/0
  3450 ;;		On exit  : 0/0
  3451 ;;		Unchanged: 0/0
  3452 ;; Data sizes:     COMRAM   BANK0   BANK1   BANK2   BANK3   BANK4   BANK5   BANK6   BANK7
  3453 ;;      Params:         0       0       0       0       0       0       0       0       0
  3454 ;;      Locals:         0       1       0       0       0       0       0       0       0
  3455 ;;      Temps:          0       1       0       0       0       0       0       0       0
  3456 ;;      Totals:         0       2       0       0       0       0       0       0       0
  3457 ;;Total ram usage:        2 bytes
  3458 ;; Hardware stack levels used: 1
  3459 ;; Hardware stack levels required when called: 8
  3460 ;; This function calls:
  3461 ;;		Nothing
  3462 ;; This function is called by:
  3463 ;;		_EnviaDato
  3464 ;;		_InicializaLCD
  3465 ;;		_BorraLCD
  3466 ;;		_ComandoLCD
  3467 ;;		_EscribeLCD_c
  3468 ;;		_EscribeLCD_n8
  3469 ;;		_DireccionaLCD
  3470 ;;		_DesplazaPantallaD
  3471 ;;		_CrearCaracter
  3472 ;; This function uses a non-reentrant model
  3473 ;;
  3474                           
  3475                           	psect	text19
  3476   001428                     __ptext19:
  3477                           	callstack 0
  3478   001428                     _RetardoLCD:
  3479                           	callstack 19
  3480                           
  3481                           ;incstack = 0
  3482                           ;RetardoLCD@a stored from wreg
  3483   001428  0100               	movlb	0	; () banked
  3484   00142A  6F61               	movwf	RetardoLCD@a& (0+255),b
  3485                           
  3486                           ;LibLCDXC8_1.h: 291: switch(a){
  3487   00142C  D01D               	goto	l3320
  3488   00142E                     l3310:
  3489                           
  3490                           ; BSR set to: 0
  3491   00142E  0E05               	movlw	5
  3492   001430  0100               	movlb	0	; () banked
  3493   001432  6F60               	movwf	??_RetardoLCD& (0+255),b
  3494   001434  0EDD               	movlw	221
  3495   001436                     u2657:
  3496   001436  2EE8               	decfsz	wreg,f,c
  3497   001438  D7FE               	bra	u2657
  3498   00143A  2F60               	decfsz	??_RetardoLCD& (0+255),f,b
  3499   00143C  D7FC               	bra	u2657
  3500   00143E  D000               	nop2	
  3501                           
  3502                           ;LibLCDXC8_1.h: 294: break;
  3503   001440  0012               	return	
  3504   001442                     l3312:
  3505                           
  3506                           ; BSR set to: 0
  3507   001442  0E53               	movlw	83
  3508   001444                     u2667:
  3509   001444  2EE8               	decfsz	wreg,f,c
  3510   001446  D7FE               	bra	u2667
  3511   001448  0000               	nop	
  3512                           
  3513                           ;LibLCDXC8_1.h: 296: _delay((unsigned long)((640)*(1000000/4000000.0)));
  3514   00144A  0E35               	movlw	53
  3515   00144C                     u2677:
  3516   00144C  2EE8               	decfsz	wreg,f,c
  3517   00144E  D7FE               	bra	u2677
  3518   001450  0000               	nop	
  3519                           
  3520                           ;LibLCDXC8_1.h: 298: break;
  3521   001452  0012               	return	
  3522   001454                     l3314:
  3523                           
  3524                           ; BSR set to: 0
  3525   001454  0E08               	movlw	8
  3526   001456                     u2687:
  3527   001456  2EE8               	decfsz	wreg,f,c
  3528   001458  D7FE               	bra	u2687
  3529   00145A  0000               	nop	
  3530                           
  3531                           ;LibLCDXC8_1.h: 301: break;
  3532   00145C  0012               	return	
  3533   00145E                     l3316:
  3534                           
  3535                           ; BSR set to: 0
  3536   00145E  0E03               	movlw	3
  3537   001460                     u2697:
  3538   001460  2EE8               	decfsz	wreg,f,c
  3539   001462  D7FE               	bra	u2697
  3540   001464  0000               	nop	
  3541                           
  3542                           ;LibLCDXC8_1.h: 304: break;
  3543   001466  0012               	return	
  3544   001468                     l3320:
  3545   001468  0100               	movlb	0	; () banked
  3546   00146A  5161               	movf	RetardoLCD@a& (0+255),w,b
  3547                           
  3548                           ; Switch size 1, requested type "simple"
  3549                           ; Number of cases is 4, Range of values is 1 to 4
  3550                           ; switch strategies available:
  3551                           ; Name         Instructions Cycles
  3552                           ; simple_byte           13     7 (average)
  3553                           ;	Chosen strategy is simple_byte
  3554   00146C  0A01               	xorlw	1	; case 1
  3555   00146E  B4D8               	btfsc	status,2,c
  3556   001470  D7DE               	goto	l3310
  3557   001472  0A03               	xorlw	3	; case 2
  3558   001474  B4D8               	btfsc	status,2,c
  3559   001476  D7E5               	goto	l3312
  3560   001478  0A01               	xorlw	1	; case 3
  3561   00147A  B4D8               	btfsc	status,2,c
  3562   00147C  D7EB               	goto	l3314
  3563   00147E  0A07               	xorlw	7	; case 4
  3564   001480  A4D8               	btfss	status,2,c
  3565   001482  0012               	return	
  3566   001484  D7EC               	goto	l3316
  3567   001486                     __end_of_RetardoLCD:
  3568                           	callstack 0
  3569                           
  3570 ;; *************** function _HabilitaLCD *****************
  3571 ;; Defined at:
  3572 ;;		line 107 in file "LibLCDXC8_1.h"
  3573 ;; Parameters:    Size  Location     Type
  3574 ;;		None
  3575 ;; Auto vars:     Size  Location     Type
  3576 ;;		None
  3577 ;; Return value:  Size  Location     Type
  3578 ;;                  1    wreg      void 
  3579 ;; Registers used:
  3580 ;;		wreg
  3581 ;; Tracked objects:
  3582 ;;		On entry : 0/0
  3583 ;;		On exit  : 0/0
  3584 ;;		Unchanged: 0/0
  3585 ;; Data sizes:     COMRAM   BANK0   BANK1   BANK2   BANK3   BANK4   BANK5   BANK6   BANK7
  3586 ;;      Params:         0       0       0       0       0       0       0       0       0
  3587 ;;      Locals:         0       0       0       0       0       0       0       0       0
  3588 ;;      Temps:          0       0       0       0       0       0       0       0       0
  3589 ;;      Totals:         0       0       0       0       0       0       0       0       0
  3590 ;;Total ram usage:        0 bytes
  3591 ;; Hardware stack levels used: 1
  3592 ;; Hardware stack levels required when called: 8
  3593 ;; This function calls:
  3594 ;;		Nothing
  3595 ;; This function is called by:
  3596 ;;		_EnviaDato
  3597 ;;		_InicializaLCD
  3598 ;;		_BorraLCD
  3599 ;;		_ComandoLCD
  3600 ;;		_EscribeLCD_c
  3601 ;;		_EscribeLCD_n8
  3602 ;;		_DireccionaLCD
  3603 ;;		_DesplazaPantallaD
  3604 ;;		_CrearCaracter
  3605 ;; This function uses a non-reentrant model
  3606 ;;
  3607                           
  3608                           	psect	text20
  3609   001990                     __ptext20:
  3610                           	callstack 0
  3611   001990                     _HabilitaLCD:
  3612                           	callstack 19
  3613                           
  3614                           ;LibLCDXC8_1.h: 109: LATA5=1;
  3615                           
  3616                           ;incstack = 0
  3617   001990  8A89               	bsf	3977,5,c	;volatile
  3618                           
  3619                           ;LibLCDXC8_1.h: 110: _delay((unsigned long)((40)*(1000000/4000000.0)));
  3620   001992  0E03               	movlw	3
  3621   001994                     u2707:
  3622   001994  2EE8               	decfsz	wreg,f,c
  3623   001996  D7FE               	bra	u2707
  3624   001998  0000               	nop	
  3625                           
  3626                           ;LibLCDXC8_1.h: 112: LATA5=0;
  3627   00199A  9A89               	bcf	3977,5,c	;volatile
  3628   00199C  0012               	return		;funcret
  3629   00199E                     __end_of_HabilitaLCD:
  3630                           	callstack 0
  3631                           
  3632 ;; *************** function _ConfiguraLCD *****************
  3633 ;; Defined at:
  3634 ;;		line 57 in file "LibLCDXC8_1.h"
  3635 ;; Parameters:    Size  Location     Type
  3636 ;;  a               1    wreg     unsigned char 
  3637 ;; Auto vars:     Size  Location     Type
  3638 ;;  a               1    0[BANK0 ] unsigned char 
  3639 ;; Return value:  Size  Location     Type
  3640 ;;                  1    wreg      void 
  3641 ;; Registers used:
  3642 ;;		wreg, status,2, status,0
  3643 ;; Tracked objects:
  3644 ;;		On entry : 0/0
  3645 ;;		On exit  : 3F/0
  3646 ;;		Unchanged: 0/0
  3647 ;; Data sizes:     COMRAM   BANK0   BANK1   BANK2   BANK3   BANK4   BANK5   BANK6   BANK7
  3648 ;;      Params:         0       0       0       0       0       0       0       0       0
  3649 ;;      Locals:         0       1       0       0       0       0       0       0       0
  3650 ;;      Temps:          0       0       0       0       0       0       0       0       0
  3651 ;;      Totals:         0       1       0       0       0       0       0       0       0
  3652 ;;Total ram usage:        1 bytes
  3653 ;; Hardware stack levels used: 1
  3654 ;; Hardware stack levels required when called: 8
  3655 ;; This function calls:
  3656 ;;		Nothing
  3657 ;; This function is called by:
  3658 ;;		_Bienvenida
  3659 ;; This function uses a non-reentrant model
  3660 ;;
  3661                           
  3662                           	psect	text21
  3663   0018AA                     __ptext21:
  3664                           	callstack 0
  3665   0018AA                     _ConfiguraLCD:
  3666                           	callstack 21
  3667                           
  3668                           ;incstack = 0
  3669                           ;ConfiguraLCD@a stored from wreg
  3670   0018AA  0100               	movlb	0	; () banked
  3671   0018AC  6F60               	movwf	ConfiguraLCD@a& (0+255),b
  3672                           
  3673                           ;LibLCDXC8_1.h: 58: if(a==4 | a ==8)
  3674   0018AE  0E04               	movlw	4
  3675   0018B0  0100               	movlb	0	; () banked
  3676   0018B2  1960               	xorwf	ConfiguraLCD@a& (0+255),w,b
  3677   0018B4  B4D8               	btfsc	status,2,c
  3678   0018B6  D004               	goto	u2250
  3679                           
  3680                           ; BSR set to: 0
  3681   0018B8  0E08               	movlw	8
  3682   0018BA  1960               	xorwf	ConfiguraLCD@a& (0+255),w,b
  3683   0018BC  A4D8               	btfss	status,2,c
  3684   0018BE  0012               	return	
  3685   0018C0                     u2250:
  3686                           
  3687                           ; BSR set to: 0
  3688                           ;LibLCDXC8_1.h: 59: interfaz=a;
  3689   0018C0  C060  F035         	movff	ConfiguraLCD@a,_interfaz
  3690                           
  3691                           ; BSR set to: 0
  3692   0018C4  0012               	return		;funcret
  3693   0018C6                     __end_of_ConfiguraLCD:
  3694                           	callstack 0
  3695                           
  3696 ;; *************** function _ISR *****************
  3697 ;; Defined at:
  3698 ;;		line 315 in file "Lab5.c"
  3699 ;; Parameters:    Size  Location     Type
  3700 ;;		None
  3701 ;; Auto vars:     Size  Location     Type
  3702 ;;		None
  3703 ;; Return value:  Size  Location     Type
  3704 ;;                  1    wreg      void 
  3705 ;; Registers used:
  3706 ;;		wreg, fsr2l, fsr2h, status,2, status,0, tblptrl, tblptrh, tblptru, prodl, prodh, cstack
  3707 ;; Tracked objects:
  3708 ;;		On entry : 0/0
  3709 ;;		On exit  : 0/0
  3710 ;;		Unchanged: 0/0
  3711 ;; Data sizes:     COMRAM   BANK0   BANK1   BANK2   BANK3   BANK4   BANK5   BANK6   BANK7
  3712 ;;      Params:         0       0       0       0       0       0       0       0       0
  3713 ;;      Locals:         0       0       0       0       0       0       0       0       0
  3714 ;;      Temps:         12       0       0       0       0       0       0       0       0
  3715 ;;      Totals:        12       0       0       0       0       0       0       0       0
  3716 ;;Total ram usage:       12 bytes
  3717 ;; Hardware stack levels used: 1
  3718 ;; Hardware stack levels required when called: 7
  3719 ;; This function calls:
  3720 ;;		_Borrar
  3721 ;;		_ConfigPregunta
  3722 ;;		_Conversion
  3723 ;;		___lwdiv
  3724 ;;		_printf
  3725 ;;		i2_BorraLCD
  3726 ;;		i2_DireccionaLCD
  3727 ;;		i2_EscribeLCD_n8
  3728 ;;		i2_MensajeLCD_Var
  3729 ;;		i2_OcultarCursor
  3730 ;; This function is called by:
  3731 ;;		Interrupt level 2
  3732 ;; This function uses a non-reentrant model
  3733 ;;
  3734                           
  3735                           	psect	intcode
  3736   000008                     __pintcode:
  3737                           	callstack 0
  3738   000008                     _ISR:
  3739                           	callstack 16
  3740                           
  3741                           ; BSR set to: 0
  3742                           ;incstack = 0
  3743   000008  8247               	bsf	btemp,1,c	;set compiler interrupt flag (level 2)
  3744   00000A  ED6F  F004         	call	int_func,f	;refresh shadow registers
  3745                           
  3746                           	psect	intcode_body
  3747   0008DE                     __pintcode_body:
  3748                           	callstack 16
  3749   0008DE                     int_func:
  3750                           	callstack 16
  3751   0008DE  0006               	pop		; remove dummy address from shadow register refresh
  3752   0008E0  CFD9 F01B          	movff	fsr2l,??_ISR+4
  3753   0008E4  CFDA F01C          	movff	fsr2h,??_ISR+5
  3754   0008E8  CFF3 F01D          	movff	prodl,??_ISR+6
  3755   0008EC  CFF4 F01E          	movff	prodh,??_ISR+7
  3756   0008F0  CFF6 F01F          	movff	tblptrl,??_ISR+8
  3757   0008F4  CFF7 F020          	movff	tblptrh,??_ISR+9
  3758   0008F8  CFF8 F021          	movff	tblptru,??_ISR+10
  3759   0008FC  CFF5 F022          	movff	tablat,??_ISR+11
  3760                           
  3761                           ;Lab5.c: 319: if(RCIF == 1){
  3762   000900  AA9E               	btfss	3998,5,c	;volatile
  3763   000902  D065               	goto	i2l331
  3764                           
  3765                           ;Lab5.c: 320: if(RCSTAbits.OERR == 1){
  3766   000904  A2AB               	btfss	171,1,c	;volatile
  3767   000906  D002               	goto	i2l324
  3768                           
  3769                           ;Lab5.c: 321: RCSTAbits.CREN = 0;
  3770   000908  98AB               	bcf	171,4,c	;volatile
  3771                           
  3772                           ;Lab5.c: 322: RCSTAbits.CREN = 1;
  3773   00090A  88AB               	bsf	171,4,c	;volatile
  3774   00090C                     i2l324:
  3775                           
  3776                           ;Lab5.c: 323: };Lab5.c: 325: rxByte = RCREG;
  3777   00090C  CFAE F02F          	movff	4014,_rxByte	;volatile
  3778                           
  3779                           ;Lab5.c: 327: if(rxByte == 'P' || rxByte == 'p'){
  3780   000910  0E50               	movlw	80
  3781   000912  182F               	xorwf	_rxByte^0,w,c
  3782   000914  B4D8               	btfsc	status,2,c
  3783   000916  D004               	goto	i2u173_40
  3784   000918  0E70               	movlw	112
  3785   00091A  182F               	xorwf	_rxByte^0,w,c
  3786   00091C  A4D8               	btfss	status,2,c
  3787   00091E  D015               	goto	i2l3106
  3788   000920                     i2u173_40:
  3789                           
  3790                           ;Lab5.c: 329: paradaEmergencia = 1;
  3791   000920  0E01               	movlw	1
  3792   000922  6E2E               	movwf	_paradaEmergencia^0,c
  3793                           
  3794                           ;Lab5.c: 330: LATC2 = 0;
  3795   000924  948B               	bcf	3979,2,c	;volatile
  3796                           
  3797                           ;Lab5.c: 332: LATE = 0b00000011;
  3798   000926  0E03               	movlw	3
  3799   000928  6E8D               	movwf	141,c	;volatile
  3800                           
  3801                           ;Lab5.c: 333: BorraLCD();
  3802   00092A  ECB5  F00C         	call	i2_BorraLCD	;wreg free
  3803                           
  3804                           ;Lab5.c: 334: OcultarCursor();
  3805   00092E  ECE8  F00C         	call	i2_OcultarCursor	;wreg free
  3806                           
  3807                           ;Lab5.c: 335: MensajeLCD_Var("   PARADA DE");
  3808   000932  0E76               	movlw	low STR_9
  3809   000934  6E06               	movwf	i2MensajeLCD_Var@a^0,c
  3810   000936  EC4E  F00B         	call	i2_MensajeLCD_Var	;wreg free
  3811                           
  3812                           ;Lab5.c: 336: DireccionaLCD(0xC0);
  3813   00093A  0EC0               	movlw	192
  3814   00093C  EC8B  F00C         	call	i2_DireccionaLCD
  3815                           
  3816                           ;Lab5.c: 337: MensajeLCD_Var("   EMERGENCIA");
  3817   000940  0E4E               	movlw	low STR_10
  3818   000942  6E06               	movwf	i2MensajeLCD_Var@a^0,c
  3819   000944  EC4E  F00B         	call	i2_MensajeLCD_Var	;wreg free
  3820   000948                     i2l328:
  3821   000948  D7FF               	goto	i2l328
  3822   00094A                     i2l3106:
  3823                           
  3824                           ;Lab5.c: 341: else if(paradaEmergencia == 0 && (rxByte == 'E' || rxByte == 'e')){
  3825   00094A  502E               	movf	_paradaEmergencia^0,w,c
  3826   00094C  A4D8               	btfss	status,2,c
  3827   00094E  D00C               	goto	i2l3116
  3828   000950  0E45               	movlw	69
  3829   000952  182F               	xorwf	_rxByte^0,w,c
  3830   000954  B4D8               	btfsc	status,2,c
  3831   000956  D004               	goto	i2u176_40
  3832   000958  0E65               	movlw	101
  3833   00095A  182F               	xorwf	_rxByte^0,w,c
  3834   00095C  A4D8               	btfss	status,2,c
  3835   00095E  D004               	goto	i2l3116
  3836   000960                     i2u176_40:
  3837                           
  3838                           ;Lab5.c: 343: ordenMotor = 1;
  3839   000960  0E01               	movlw	1
  3840   000962  6E2D               	movwf	_ordenMotor^0,c
  3841                           
  3842                           ;Lab5.c: 344: LATC2 = 1;
  3843   000964  848B               	bsf	3979,2,c	;volatile
  3844                           
  3845                           ;Lab5.c: 345: }
  3846   000966  D033               	goto	i2l331
  3847   000968                     i2l3116:
  3848                           
  3849                           ;Lab5.c: 346: else if(paradaEmergencia == 0 && (rxByte == 'A' || rxByte == 'a')){
  3850   000968  502E               	movf	_paradaEmergencia^0,w,c
  3851   00096A  A4D8               	btfss	status,2,c
  3852   00096C  D00C               	goto	i2l3126
  3853   00096E  0E41               	movlw	65
  3854   000970  182F               	xorwf	_rxByte^0,w,c
  3855   000972  B4D8               	btfsc	status,2,c
  3856   000974  D004               	goto	i2u179_40
  3857   000976  0E61               	movlw	97
  3858   000978  182F               	xorwf	_rxByte^0,w,c
  3859   00097A  A4D8               	btfss	status,2,c
  3860   00097C  D004               	goto	i2l3126
  3861   00097E                     i2u179_40:
  3862                           
  3863                           ;Lab5.c: 348: ordenMotor = 2;
  3864   00097E  0E02               	movlw	2
  3865   000980  6E2D               	movwf	_ordenMotor^0,c
  3866                           
  3867                           ;Lab5.c: 349: LATC2 = 0;
  3868   000982  948B               	bcf	3979,2,c	;volatile
  3869                           
  3870                           ;Lab5.c: 350: }
  3871   000984  D024               	goto	i2l331
  3872   000986                     i2l3126:
  3873                           
  3874                           ;Lab5.c: 351: else if(flagConteoActivo == 1 && (rxByte == 'R' || rxByte == 'r')){
  3875   000986  0432               	decf	_flagConteoActivo^0,w,c
  3876   000988  A4D8               	btfss	status,2,c
  3877   00098A  D021               	goto	i2l331
  3878   00098C  0E52               	movlw	82
  3879   00098E  182F               	xorwf	_rxByte^0,w,c
  3880   000990  B4D8               	btfsc	status,2,c
  3881   000992  D004               	goto	i2u182_40
  3882   000994  0E72               	movlw	114
  3883   000996  182F               	xorwf	_rxByte^0,w,c
  3884   000998  A4D8               	btfss	status,2,c
  3885   00099A  D019               	goto	i2l331
  3886   00099C                     i2u182_40:
  3887                           
  3888                           ;Lab5.c: 353: unidades7Seg = 0;
  3889   00099C  0E00               	movlw	0
  3890   00099E  6E2A               	movwf	(_unidades7Seg+1)^0,c
  3891   0009A0  0E00               	movlw	0
  3892   0009A2  6E29               	movwf	_unidades7Seg^0,c
  3893                           
  3894                           ;Lab5.c: 354: piezasTotalesContadas = 0;
  3895   0009A4  0E00               	movlw	0
  3896   0009A6  6E2C               	movwf	(_piezasTotalesContadas+1)^0,c
  3897   0009A8  0E00               	movlw	0
  3898   0009AA  6E2B               	movwf	_piezasTotalesContadas^0,c
  3899                           
  3900                           ;Lab5.c: 355: decenasRGB = 0;
  3901   0009AC  0E00               	movlw	0
  3902   0009AE  6E28               	movwf	(_decenasRGB+1)^0,c
  3903   0009B0  0E00               	movlw	0
  3904   0009B2  6E27               	movwf	_decenasRGB^0,c
  3905                           
  3906                           ;Lab5.c: 356: LATE = 0b00000001;
  3907   0009B4  0E01               	movlw	1
  3908   0009B6  6E8D               	movwf	141,c	;volatile
  3909                           
  3910                           ;Lab5.c: 358: DireccionaLCD(0x8B);
  3911   0009B8  0E8B               	movlw	139
  3912   0009BA  EC8B  F00C         	call	i2_DireccionaLCD
  3913                           
  3914                           ;Lab5.c: 359: EscribeLCD_n8(piezasObjetivo - piezasTotalesContadas, 2);
  3915   0009BE  0E02               	movlw	2
  3916   0009C0  6E09               	movwf	i2EscribeLCD_n8@b^0,c
  3917   0009C2  502B               	movf	_piezasTotalesContadas^0,w,c
  3918   0009C4  5C25               	subwf	_piezasObjetivo^0,w,c
  3919   0009C6  EC6D  F008         	call	i2_EscribeLCD_n8
  3920                           
  3921                           ;Lab5.c: 360: LATD = unidades7Seg;
  3922   0009CA  C029  FF8C         	movff	_unidades7Seg,3980	;volatile
  3923   0009CE                     i2l331:
  3924                           
  3925                           ;Lab5.c: 361: };Lab5.c: 362: };Lab5.c: 366: if(TMR0IF == 1){
  3926   0009CE  A4F2               	btfss	4082,2,c	;volatile
  3927   0009D0  D02D               	goto	i2l343
  3928                           
  3929                           ;Lab5.c: 367: TMR0 = 3036;
  3930   0009D2  0E0B               	movlw	11
  3931   0009D4  6ED7               	movwf	215,c	;volatile
  3932   0009D6  0EDC               	movlw	220
  3933   0009D8  6ED6               	movwf	214,c	;volatile
  3934                           
  3935                           ;Lab5.c: 368: TMR0IF = 0;
  3936   0009DA  94F2               	bcf	4082,2,c	;volatile
  3937                           
  3938                           ;Lab5.c: 370: LATA1 = LATA1 ^ 1;
  3939   0009DC  B289               	btfsc	3977,1,c	;volatile
  3940   0009DE  D002               	goto	i2u184_40
  3941   0009E0  8289               	bsf	3977,1,c	;volatile
  3942   0009E2  D001               	goto	i2u185_45
  3943   0009E4                     i2u184_40:
  3944   0009E4  9289               	bcf	3977,1,c	;volatile
  3945   0009E6                     i2u185_45:
  3946                           
  3947                           ;Lab5.c: 372: adcValor = Conversion(0);
  3948   0009E6  0E00               	movlw	0
  3949   0009E8  EC63  F00C         	call	_Conversion
  3950   0009EC  C001  F023         	movff	?_Conversion,_adcValor
  3951   0009F0  C002  F024         	movff	?_Conversion+1,_adcValor+1
  3952                           
  3953                           ;Lab5.c: 373: printf("Valor del ADC:%d\r\n", adcValor);
  3954   0009F4  0E0B               	movlw	low STR_11
  3955   0009F6  6E0D               	movwf	printf@f^0,c
  3956   0009F8  C023  F00E         	movff	_adcValor,?_printf+1
  3957   0009FC  C024  F00F         	movff	_adcValor+1,?_printf+2
  3958   000A00  EC6A  F007         	call	_printf	;wreg free
  3959                           
  3960                           ;Lab5.c: 375: if(paradaEmergencia == 0){
  3961   000A04  502E               	movf	_paradaEmergencia^0,w,c
  3962   000A06  A4D8               	btfss	status,2,c
  3963   000A08  D009               	goto	i2u188_40
  3964                           
  3965                           ;Lab5.c: 376: if(ordenMotor == 1){
  3966   000A0A  042D               	decf	_ordenMotor^0,w,c
  3967   000A0C  A4D8               	btfss	status,2,c
  3968   000A0E  D002               	goto	i2l3158
  3969   000A10                     i2u187_40:
  3970                           
  3971                           ;Lab5.c: 377: LATC2 = 1;
  3972   000A10  848B               	bsf	3979,2,c	;volatile
  3973                           
  3974                           ;Lab5.c: 378: }else if(ordenMotor == 2){
  3975   000A12  D00C               	goto	i2l343
  3976   000A14                     i2l3158:
  3977   000A14  0E02               	movlw	2
  3978   000A16  182D               	xorwf	_ordenMotor^0,w,c
  3979   000A18  A4D8               	btfss	status,2,c
  3980   000A1A  D002               	goto	i2l3162
  3981   000A1C                     i2u188_40:
  3982                           
  3983                           ;Lab5.c: 379: LATC2 = 0;
  3984   000A1C  948B               	bcf	3979,2,c	;volatile
  3985                           
  3986                           ;Lab5.c: 380: }else{
  3987   000A1E  D006               	goto	i2l343
  3988   000A20                     i2l3162:
  3989                           
  3990                           ;Lab5.c: 381: if(adcValor >= 511){
  3991   000A20  2823               	incf	_adcValor^0,w,c
  3992   000A22  0E01               	movlw	1
  3993   000A24  5824               	subwfb	(_adcValor+1)^0,w,c
  3994   000A26  B0D8               	btfsc	status,0,c
  3995   000A28  D7F3               	goto	i2u187_40
  3996   000A2A  D7F8               	goto	i2u188_40
  3997   000A2C                     i2l343:
  3998                           
  3999                           ;Lab5.c: 389: };Lab5.c: 390: };Lab5.c: 394: if(TMR1IF == 1){
  4000   000A2C  A09E               	btfss	3998,0,c	;volatile
  4001   000A2E  D011               	goto	i2l352
  4002                           
  4003                           ;Lab5.c: 395: TMR1 = 34286;
  4004   000A30  0E85               	movlw	133
  4005   000A32  6ECF               	movwf	207,c	;volatile
  4006   000A34  0EEE               	movlw	238
  4007   000A36  6ECE               	movwf	206,c	;volatile
  4008                           
  4009                           ;Lab5.c: 396: TMR1IF = 0;
  4010   000A38  909E               	bcf	3998,0,c	;volatile
  4011                           
  4012                           ;Lab5.c: 398: segundosSinActividad++;
  4013   000A3A  2A30               	incf	_segundosSinActividad^0,f,c
  4014                           
  4015                           ;Lab5.c: 400: if(segundosSinActividad == 30){
  4016   000A3C  0E1E               	movlw	30
  4017   000A3E  1830               	xorwf	_segundosSinActividad^0,w,c
  4018   000A40  B4D8               	btfsc	status,2,c
  4019                           
  4020                           ;Lab5.c: 401: LATA3 = 0;
  4021   000A42  9689               	bcf	3977,3,c	;volatile
  4022                           
  4023                           ;Lab5.c: 402: };Lab5.c: 404: if(segundosSinActividad >= 60){
  4024   000A44  0E3B               	movlw	59
  4025   000A46  6430               	cpfsgt	_segundosSinActividad^0,c
  4026   000A48  D004               	goto	i2l352
  4027   000A4A  0003               	sleep		;# 
  4028                           
  4029                           ;Lab5.c: 407: segundosSinActividad = 0;
  4030   000A4C  6A30               	clrf	_segundosSinActividad^0,c
  4031                           
  4032                           ;Lab5.c: 408: RBIF = 0;
  4033   000A4E  90F2               	bcf	4082,0,c	;volatile
  4034                           
  4035                           ;Lab5.c: 409: TMR1ON = 1;
  4036   000A50  80CD               	bsf	4045,0,c	;volatile
  4037   000A52                     i2l352:
  4038                           
  4039                           ;Lab5.c: 410: };Lab5.c: 411: };Lab5.c: 415: if(RBIF == 1){
  4040   000A52  A0F2               	btfss	4082,0,c	;volatile
  4041   000A54  D0DD               	goto	i2l403
  4042                           
  4043                           ;Lab5.c: 416: if(PORTB != 0b11110000){
  4044   000A56  0EF0               	movlw	240
  4045   000A58  1881               	xorwf	129,w,c	;volatile
  4046   000A5A  B4D8               	btfsc	status,2,c
  4047   000A5C  D0D1               	goto	i2l3298
  4048                           
  4049                           ;Lab5.c: 418: segundosSinActividad = 0;
  4050   000A5E  6A30               	clrf	_segundosSinActividad^0,c
  4051                           
  4052                           ;Lab5.c: 420: LATB = 0b11111110;
  4053   000A60  0EFE               	movlw	254
  4054   000A62  6E8A               	movwf	138,c	;volatile
  4055                           
  4056                           ;Lab5.c: 421: if(RB4 == 0){
  4057   000A64  B881               	btfsc	3969,4,c	;volatile
  4058   000A66  D005               	goto	i2l357
  4059                           
  4060                           ;Lab5.c: 422: teclaLeida = 1;
  4061   000A68  0E01               	movlw	1
  4062   000A6A                     L8:
  4063   000A6A  6E31               	movwf	_teclaLeida^0,c
  4064   000A6C                     i2l3190:
  4065                           
  4066                           ;Lab5.c: 423: ConfigPregunta();
  4067   000A6C  EC43  F00A         	call	_ConfigPregunta	;wreg free
  4068                           
  4069                           ;Lab5.c: 424: }
  4070   000A70  D0C5               	goto	i2l381
  4071   000A72                     i2l357:
  4072                           
  4073                           ;Lab5.c: 425: else if(RB5 == 0){
  4074   000A72  BA81               	btfsc	3969,5,c	;volatile
  4075   000A74  D002               	goto	i2l359
  4076                           
  4077                           ;Lab5.c: 426: teclaLeida = 2;
  4078   000A76  0E02               	movlw	2
  4079   000A78  D7F8               	goto	L8
  4080   000A7A                     i2l359:
  4081                           
  4082                           ;Lab5.c: 429: else if(RB6 == 0){
  4083   000A7A  BC81               	btfsc	3969,6,c	;volatile
  4084   000A7C  D002               	goto	i2l361
  4085                           
  4086                           ;Lab5.c: 430: teclaLeida = 3;
  4087   000A7E  0E03               	movlw	3
  4088   000A80  D7F4               	goto	L8
  4089   000A82                     i2l361:
  4090                           
  4091                           ;Lab5.c: 433: else if(RB7 == 0){
  4092   000A82  BE81               	btfsc	3969,7,c	;volatile
  4093   000A84  D003               	goto	i2l3202
  4094                           
  4095                           ;Lab5.c: 434: teclaLeida = '*';
  4096   000A86  0E2A               	movlw	42
  4097   000A88  6E31               	movwf	_teclaLeida^0,c
  4098                           
  4099                           ;Lab5.c: 435: }
  4100   000A8A  D0B8               	goto	i2l381
  4101   000A8C                     i2l3202:
  4102                           
  4103                           ;Lab5.c: 436: else{;Lab5.c: 437: LATB = 0b11111101;
  4104   000A8C  0EFD               	movlw	253
  4105   000A8E  6E8A               	movwf	138,c	;volatile
  4106                           
  4107                           ;Lab5.c: 438: if(RB4 == 0){
  4108   000A90  B881               	btfsc	3969,4,c	;volatile
  4109   000A92  D002               	goto	i2l365
  4110                           
  4111                           ;Lab5.c: 439: teclaLeida = 4;
  4112   000A94  0E04               	movlw	4
  4113   000A96  D7E9               	goto	L8
  4114   000A98                     i2l365:
  4115                           
  4116                           ;Lab5.c: 442: else if(RB5 == 0){
  4117   000A98  BA81               	btfsc	3969,5,c	;volatile
  4118   000A9A  D002               	goto	i2l367
  4119                           
  4120                           ;Lab5.c: 443: teclaLeida = 5;
  4121   000A9C  0E05               	movlw	5
  4122   000A9E  D7E5               	goto	L8
  4123   000AA0                     i2l367:
  4124                           
  4125                           ;Lab5.c: 446: else if(RB6 == 0){
  4126   000AA0  BC81               	btfsc	3969,6,c	;volatile
  4127   000AA2  D002               	goto	i2l369
  4128                           
  4129                           ;Lab5.c: 447: teclaLeida = 6;
  4130   000AA4  0E06               	movlw	6
  4131   000AA6  D7E1               	goto	L8
  4132   000AA8                     i2l369:
  4133                           
  4134                           ;Lab5.c: 450: else if(RB7 == 0){
  4135   000AA8  BE81               	btfsc	3969,7,c	;volatile
  4136   000AAA  D012               	goto	i2l3230
  4137                           
  4138                           ;Lab5.c: 452: LATE = 0b00000110;
  4139   000AAC  0E06               	movlw	6
  4140   000AAE  6E8D               	movwf	141,c	;volatile
  4141                           
  4142                           ;Lab5.c: 453: BorraLCD();
  4143   000AB0  ECB5  F00C         	call	i2_BorraLCD	;wreg free
  4144                           
  4145                           ;Lab5.c: 454: OcultarCursor();
  4146   000AB4  ECE8  F00C         	call	i2_OcultarCursor	;wreg free
  4147                           
  4148                           ;Lab5.c: 455: MensajeLCD_Var("   PARADA DE");
  4149   000AB8  0E76               	movlw	low STR_9
  4150   000ABA  6E06               	movwf	i2MensajeLCD_Var@a^0,c
  4151   000ABC  EC4E  F00B         	call	i2_MensajeLCD_Var	;wreg free
  4152                           
  4153                           ;Lab5.c: 456: DireccionaLCD(0xC0);
  4154   000AC0  0EC0               	movlw	192
  4155   000AC2  EC8B  F00C         	call	i2_DireccionaLCD
  4156                           
  4157                           ;Lab5.c: 457: MensajeLCD_Var("   EMERGENCIA");
  4158   000AC6  0E4E               	movlw	low STR_10
  4159   000AC8  6E06               	movwf	i2MensajeLCD_Var@a^0,c
  4160   000ACA  EC4E  F00B         	call	i2_MensajeLCD_Var	;wreg free
  4161   000ACE                     i2l372:
  4162   000ACE  D7FF               	goto	i2l372
  4163   000AD0                     i2l3230:
  4164                           
  4165                           ;Lab5.c: 460: else{;Lab5.c: 461: LATB = 0b11111011;
  4166   000AD0  0EFB               	movlw	251
  4167   000AD2  6E8A               	movwf	138,c	;volatile
  4168                           
  4169                           ;Lab5.c: 462: if(RB4 == 0){
  4170   000AD4  B881               	btfsc	3969,4,c	;volatile
  4171   000AD6  D002               	goto	i2l376
  4172                           
  4173                           ;Lab5.c: 463: teclaLeida = 7;
  4174   000AD8  0E07               	movlw	7
  4175   000ADA  D7C7               	goto	L8
  4176   000ADC                     i2l376:
  4177                           
  4178                           ;Lab5.c: 466: else if(RB5 == 0){
  4179   000ADC  BA81               	btfsc	3969,5,c	;volatile
  4180   000ADE  D002               	goto	i2l378
  4181                           
  4182                           ;Lab5.c: 467: teclaLeida = 8;
  4183   000AE0  0E08               	movlw	8
  4184   000AE2  D7C3               	goto	L8
  4185   000AE4                     i2l378:
  4186                           
  4187                           ;Lab5.c: 470: else if(RB6 == 0){
  4188   000AE4  BC81               	btfsc	3969,6,c	;volatile
  4189   000AE6  D002               	goto	i2l380
  4190                           
  4191                           ;Lab5.c: 471: teclaLeida = 9;
  4192   000AE8  0E09               	movlw	9
  4193   000AEA  D7BF               	goto	L8
  4194   000AEC                     i2l380:
  4195                           
  4196                           ;Lab5.c: 474: else if(RB7 == 0){
  4197   000AEC  BE81               	btfsc	3969,7,c	;volatile
  4198   000AEE  D003               	goto	i2l3248
  4199                           
  4200                           ;Lab5.c: 475: Borrar();
  4201   000AF0  EC15  F00C         	call	_Borrar	;wreg free
  4202                           
  4203                           ;Lab5.c: 476: }
  4204   000AF4  D083               	goto	i2l381
  4205   000AF6                     i2l3248:
  4206                           
  4207                           ;Lab5.c: 477: else{;Lab5.c: 478: LATB = 0b11110111;
  4208   000AF6  0EF7               	movlw	247
  4209   000AF8  6E8A               	movwf	138,c	;volatile
  4210                           
  4211                           ;Lab5.c: 479: if(RB4 == 0){
  4212   000AFA  B881               	btfsc	3969,4,c	;volatile
  4213   000AFC  D01D               	goto	i2l384
  4214                           
  4215                           ;Lab5.c: 481: unidades7Seg = 0;
  4216   000AFE  0E00               	movlw	0
  4217   000B00  6E2A               	movwf	(_unidades7Seg+1)^0,c
  4218   000B02  0E00               	movlw	0
  4219   000B04  6E29               	movwf	_unidades7Seg^0,c
  4220                           
  4221                           ;Lab5.c: 482: piezasTotalesContadas = 0;
  4222   000B06  0E00               	movlw	0
  4223   000B08  6E2C               	movwf	(_piezasTotalesContadas+1)^0,c
  4224   000B0A  0E00               	movlw	0
  4225   000B0C  6E2B               	movwf	_piezasTotalesContadas^0,c
  4226                           
  4227                           ;Lab5.c: 483: decenasRGB = 0;
  4228   000B0E  0E00               	movlw	0
  4229   000B10  6E28               	movwf	(_decenasRGB+1)^0,c
  4230   000B12  0E00               	movlw	0
  4231   000B14  6E27               	movwf	_decenasRGB^0,c
  4232                           
  4233                           ;Lab5.c: 484: LATE = 0b00000001;
  4234   000B16  0E01               	movlw	1
  4235   000B18  6E8D               	movwf	141,c	;volatile
  4236                           
  4237                           ;Lab5.c: 486: if(flagConteoActivo == 1){
  4238   000B1A  0432               	decf	_flagConteoActivo^0,w,c
  4239   000B1C  A4D8               	btfss	status,2,c
  4240   000B1E  D06E               	goto	i2l381
  4241                           
  4242                           ;Lab5.c: 487: DireccionaLCD(0x8B);
  4243   000B20  0E8B               	movlw	139
  4244   000B22  EC8B  F00C         	call	i2_DireccionaLCD
  4245                           
  4246                           ;Lab5.c: 488: EscribeLCD_n8(piezasObjetivo - piezasTotalesContadas, 2);
  4247   000B26  0E02               	movlw	2
  4248   000B28  6E09               	movwf	i2EscribeLCD_n8@b^0,c
  4249   000B2A  502B               	movf	_piezasTotalesContadas^0,w,c
  4250   000B2C  5C25               	subwf	_piezasObjetivo^0,w,c
  4251   000B2E  EC6D  F008         	call	i2_EscribeLCD_n8
  4252   000B32                     i2l3258:
  4253                           
  4254                           ;Lab5.c: 489: LATD = unidades7Seg;
  4255   000B32  C029  FF8C         	movff	_unidades7Seg,3980	;volatile
  4256   000B36  D062               	goto	i2l381
  4257   000B38                     i2l384:
  4258                           
  4259                           ;Lab5.c: 492: else if(RB5 == 0){
  4260   000B38  BA81               	btfsc	3969,5,c	;volatile
  4261   000B3A  D002               	goto	i2l387
  4262                           
  4263                           ;Lab5.c: 493: teclaLeida = 0;
  4264   000B3C  6A31               	clrf	_teclaLeida^0,c
  4265   000B3E  D796               	goto	i2l3190
  4266   000B40                     i2l387:
  4267                           
  4268                           ;Lab5.c: 496: else if(RB6 == 0){
  4269   000B40  BC81               	btfsc	3969,6,c	;volatile
  4270   000B42  D054               	goto	i2l389
  4271                           
  4272                           ;Lab5.c: 498: Borrar();
  4273   000B44  EC15  F00C         	call	_Borrar	;wreg free
  4274                           
  4275                           ;Lab5.c: 499: piezasTotalesContadas = piezasObjetivo;
  4276   000B48  C025  F02B         	movff	_piezasObjetivo,_piezasTotalesContadas
  4277   000B4C  C026  F02C         	movff	_piezasObjetivo+1,_piezasTotalesContadas+1
  4278                           
  4279                           ;Lab5.c: 500: decenasRGB = piezasObjetivo / 10;
  4280   000B50  C025  F001         	movff	_piezasObjetivo,___lwdiv@dividend
  4281   000B54  C026  F002         	movff	_piezasObjetivo+1,___lwdiv@dividend+1
  4282   000B58  0E00               	movlw	0
  4283   000B5A  6E04               	movwf	(___lwdiv@divisor+1)^0,c
  4284   000B5C  0E0A               	movlw	10
  4285   000B5E  6E03               	movwf	___lwdiv@divisor^0,c
  4286   000B60  EC9B  F00A         	call	___lwdiv	;wreg free
  4287   000B64  C001  F027         	movff	?___lwdiv,_decenasRGB
  4288   000B68  C002  F028         	movff	?___lwdiv+1,_decenasRGB+1
  4289                           
  4290                           ;Lab5.c: 501: unidades7Seg = piezasObjetivo - decenasRGB * 10;
  4291   000B6C  0EF6               	movlw	246
  4292   000B6E  6E17               	movwf	??_ISR^0,c
  4293   000B70  0EFF               	movlw	255
  4294   000B72  6E18               	movwf	(??_ISR+1)^0,c
  4295   000B74  5017               	movf	??_ISR^0,w,c
  4296   000B76  0227               	mulwf	_decenasRGB^0,c
  4297   000B78  CFF3 F019          	movff	prodl,??_ISR+2
  4298   000B7C  CFF4 F01A          	movff	prodh,??_ISR+3
  4299   000B80  0228               	mulwf	(_decenasRGB+1)^0,c
  4300   000B82  50F3               	movf	prodl,w,c
  4301   000B84  261A               	addwf	(??_ISR+3)^0,f,c
  4302   000B86  5018               	movf	(??_ISR+1)^0,w,c
  4303   000B88  0227               	mulwf	_decenasRGB^0,c
  4304   000B8A  50F3               	movf	prodl,w,c
  4305   000B8C  261A               	addwf	(??_ISR+3)^0,f,c
  4306   000B8E  5025               	movf	_piezasObjetivo^0,w,c
  4307   000B90  2419               	addwf	(??_ISR+2)^0,w,c
  4308   000B92  6E29               	movwf	_unidades7Seg^0,c
  4309   000B94  5026               	movf	(_piezasObjetivo+1)^0,w,c
  4310   000B96  201A               	addwfc	(??_ISR+3)^0,w,c
  4311   000B98  6E2A               	movwf	(_unidades7Seg+1)^0,c
  4312                           
  4313                           ;Lab5.c: 503: if(decenasRGB == 0){
  4314   000B9A  5027               	movf	_decenasRGB^0,w,c
  4315   000B9C  1028               	iorwf	(_decenasRGB+1)^0,w,c
  4316   000B9E  A4D8               	btfss	status,2,c
  4317   000BA0  D002               	goto	i2l3274
  4318                           
  4319                           ;Lab5.c: 504: LATE = 0b00000001;
  4320   000BA2  0E01               	movlw	1
  4321   000BA4  D01A               	goto	L12
  4322   000BA6                     i2l3274:
  4323   000BA6  0427               	decf	_decenasRGB^0,w,c
  4324   000BA8  1028               	iorwf	(_decenasRGB+1)^0,w,c
  4325   000BAA  A4D8               	btfss	status,2,c
  4326   000BAC  D002               	goto	i2l3278
  4327                           
  4328                           ;Lab5.c: 506: LATE = 0b00000101;
  4329   000BAE  0E05               	movlw	5
  4330   000BB0  D014               	goto	L12
  4331   000BB2                     i2l3278:
  4332   000BB2  0E02               	movlw	2
  4333   000BB4  1827               	xorwf	_decenasRGB^0,w,c
  4334   000BB6  1028               	iorwf	(_decenasRGB+1)^0,w,c
  4335   000BB8  A4D8               	btfss	status,2,c
  4336   000BBA  D002               	goto	i2l3282
  4337                           
  4338                           ;Lab5.c: 508: LATE = 0b00000100;
  4339   000BBC  0E04               	movlw	4
  4340   000BBE  D00D               	goto	L12
  4341   000BC0                     i2l3282:
  4342   000BC0  0E03               	movlw	3
  4343   000BC2  1827               	xorwf	_decenasRGB^0,w,c
  4344   000BC4  1028               	iorwf	(_decenasRGB+1)^0,w,c
  4345   000BC6  A4D8               	btfss	status,2,c
  4346   000BC8  D002               	goto	i2l3286
  4347                           
  4348                           ;Lab5.c: 510: LATE = 0b00000110;
  4349   000BCA  0E06               	movlw	6
  4350   000BCC  D006               	goto	L12
  4351   000BCE                     i2l3286:
  4352   000BCE  0E04               	movlw	4
  4353   000BD0  1827               	xorwf	_decenasRGB^0,w,c
  4354   000BD2  1028               	iorwf	(_decenasRGB+1)^0,w,c
  4355   000BD4  A4D8               	btfss	status,2,c
  4356   000BD6  D003               	goto	i2l3290
  4357                           
  4358                           ;Lab5.c: 512: LATE = 0b00000010;
  4359   000BD8  0E02               	movlw	2
  4360   000BDA                     L12:
  4361   000BDA  6E8D               	movwf	141,c	;volatile
  4362                           
  4363                           ;Lab5.c: 513: }else if(decenasRGB == 5){
  4364   000BDC  D7AA               	goto	i2l3258
  4365   000BDE                     i2l3290:
  4366   000BDE  0E05               	movlw	5
  4367   000BE0  1827               	xorwf	_decenasRGB^0,w,c
  4368   000BE2  1028               	iorwf	(_decenasRGB+1)^0,w,c
  4369   000BE4  A4D8               	btfss	status,2,c
  4370   000BE6  D7A5               	goto	i2l3258
  4371                           
  4372                           ;Lab5.c: 514: LATE = 0b00000000;
  4373   000BE8  6A8D               	clrf	141,c	;volatile
  4374   000BEA  D7A3               	goto	i2l3258
  4375   000BEC                     i2l389:
  4376                           
  4377                           ;Lab5.c: 519: else if(RB7 == 0){
  4378   000BEC  BE81               	btfsc	3969,7,c	;volatile
  4379   000BEE  D006               	goto	i2l381
  4380                           
  4381                           ;Lab5.c: 520: LATA3 = LATA3 ^ 1;
  4382   000BF0  B689               	btfsc	3977,3,c	;volatile
  4383   000BF2  D002               	goto	i2u218_40
  4384   000BF4  8689               	bsf	3977,3,c	;volatile
  4385   000BF6  D001               	goto	i2u219_45
  4386   000BF8                     i2u218_40:
  4387   000BF8  9689               	bcf	3977,3,c	;volatile
  4388   000BFA                     i2u219_45:
  4389                           
  4390                           ;Lab5.c: 521: TMR1ON = 1;
  4391   000BFA  80CD               	bsf	4045,0,c	;volatile
  4392   000BFC                     i2l381:
  4393                           
  4394                           ;Lab5.c: 522: };Lab5.c: 523: };Lab5.c: 524: };Lab5.c: 525: };Lab5.c: 527: LATB = 0b11110
      +                          000;
  4395   000BFC  0EF0               	movlw	240
  4396   000BFE  6E8A               	movwf	138,c	;volatile
  4397   000C00                     i2l3298:
  4398                           
  4399                           ;Lab5.c: 528: };Lab5.c: 530: _delay((unsigned long)((300)*(1000000/4000.0)));
  4400   000C00  0E62               	movlw	98
  4401   000C02  6E17               	movwf	??_ISR^0,c
  4402   000C04  0E66               	movlw	102
  4403   000C06                     i2u271_47:
  4404   000C06  2EE8               	decfsz	wreg,f,c
  4405   000C08  D7FE               	bra	i2u271_47
  4406   000C0A  2E17               	decfsz	??_ISR^0,f,c
  4407   000C0C  D7FC               	bra	i2u271_47
  4408                           
  4409                           ;Lab5.c: 531: RBIF = 0;
  4410   000C0E  90F2               	bcf	4082,0,c	;volatile
  4411   000C10                     i2l403:
  4412   000C10  C022  FFF5         	movff	??_ISR+11,tablat
  4413   000C14  C021  FFF8         	movff	??_ISR+10,tblptru
  4414   000C18  C020  FFF7         	movff	??_ISR+9,tblptrh
  4415   000C1C  C01F  FFF6         	movff	??_ISR+8,tblptrl
  4416   000C20  C01E  FFF4         	movff	??_ISR+7,prodh
  4417   000C24  C01D  FFF3         	movff	??_ISR+6,prodl
  4418   000C28  C01C  FFDA         	movff	??_ISR+5,fsr2h
  4419   000C2C  C01B  FFD9         	movff	??_ISR+4,fsr2l
  4420   000C30  9247               	bcf	btemp,1,c	;clear compiler interrupt flag (level 2)
  4421   000C32  0011               	retfie		f
  4422   000C34                     __end_of_ISR:
  4423                           	callstack 0
  4424                           
  4425 ;; *************** function i2_MensajeLCD_Var *****************
  4426 ;; Defined at:
  4427 ;;		line 236 in file "LibLCDXC8_1.h"
  4428 ;; Parameters:    Size  Location     Type
  4429 ;;  a               1    5[COMRAM] PTR unsigned char 
  4430 ;;		 -> STR_18(10), STR_17(6), STR_16(17), STR_15(12), 
  4431 ;;		 -> STR_14(13), STR_13(14), STR_12(13), STR_10(14), 
  4432 ;;		 -> STR_9(13), STR_8(15), STR_7(16), STR_6(11), 
  4433 ;;		 -> STR_5(12), STR_4(13), STR_3(13), STR_2(13), 
  4434 ;;		 -> STR_1(13), 
  4435 ;; Auto vars:     Size  Location     Type
  4436 ;;  i               2    7[COMRAM] int 
  4437 ;; Return value:  Size  Location     Type
  4438 ;;                  1    wreg      void 
  4439 ;; Registers used:
  4440 ;;		wreg, status,2, status,0, tblptrl, tblptrh, tblptru, cstack
  4441 ;; Tracked objects:
  4442 ;;		On entry : 0/0
  4443 ;;		On exit  : 0/0
  4444 ;;		Unchanged: 0/0
  4445 ;; Data sizes:     COMRAM   BANK0   BANK1   BANK2   BANK3   BANK4   BANK5   BANK6   BANK7
  4446 ;;      Params:         1       0       0       0       0       0       0       0       0
  4447 ;;      Locals:         2       0       0       0       0       0       0       0       0
  4448 ;;      Temps:          1       0       0       0       0       0       0       0       0
  4449 ;;      Totals:         4       0       0       0       0       0       0       0       0
  4450 ;;Total ram usage:        4 bytes
  4451 ;; Hardware stack levels used: 1
  4452 ;; Hardware stack levels required when called: 3
  4453 ;; This function calls:
  4454 ;;		i2_EscribeLCD_c
  4455 ;; This function is called by:
  4456 ;;		_ISR
  4457 ;; This function uses a non-reentrant model
  4458 ;;
  4459                           
  4460                           	psect	text23
  4461   00169C                     __ptext23:
  4462                           	callstack 0
  4463   00169C                     i2_MensajeLCD_Var:
  4464                           	callstack 19
  4465                           
  4466                           ;LibLCDXC8_1.h: 241: for (int i=0;a[i] != '\0';i++){
  4467                           
  4468                           ;incstack = 0
  4469   00169C  0E00               	movlw	0
  4470   00169E  6E09               	movwf	(i2MensajeLCD_Var@i+1)^0,c
  4471   0016A0  0E00               	movlw	0
  4472   0016A2  6E08               	movwf	i2MensajeLCD_Var@i^0,c
  4473   0016A4  D00D               	goto	i2l2846
  4474   0016A6                     i2l2842:
  4475                           
  4476                           ;LibLCDXC8_1.h: 242: EscribeLCD_c(a[i]);
  4477   0016A6  5006               	movf	i2MensajeLCD_Var@a^0,w,c
  4478   0016A8  2408               	addwf	i2MensajeLCD_Var@i^0,w,c
  4479   0016AA  6E07               	movwf	??i2_MensajeLCD_Var^0,c
  4480   0016AC  C007  FFF6         	movff	??i2_MensajeLCD_Var,tblptrl
  4481   0016B0                     	if	1	;There is more than 1 active tblptr byte
  4482   0016B0  0E08               	movlw	high __smallconst
  4483   0016B2  6EF7               	movwf	tblptrh,c
  4484   0016B4                     	endif
  4485   0016B4                     	if	0	;tblptru may be non-zero
  4486   0016B4                     	endif
  4487   0016B4                     	if	0	;tblptru may be non-zero
  4488   0016B4                     	endif
  4489   0016B4  0008               	tblrd		*
  4490   0016B6  50F5               	movf	tablat,w,c
  4491   0016B8  EC96  F00C         	call	i2_EscribeLCD_c
  4492   0016BC  4A08               	infsnz	i2MensajeLCD_Var@i^0,f,c
  4493   0016BE  2A09               	incf	(i2MensajeLCD_Var@i+1)^0,f,c
  4494   0016C0                     i2l2846:
  4495   0016C0  5006               	movf	i2MensajeLCD_Var@a^0,w,c
  4496   0016C2  2408               	addwf	i2MensajeLCD_Var@i^0,w,c
  4497   0016C4  6E07               	movwf	??i2_MensajeLCD_Var^0,c
  4498   0016C6  C007  FFF6         	movff	??i2_MensajeLCD_Var,tblptrl
  4499   0016CA                     	if	1	;There is more than 1 active tblptr byte
  4500   0016CA  0E08               	movlw	high __smallconst
  4501   0016CC  6EF7               	movwf	tblptrh,c
  4502   0016CE                     	endif
  4503   0016CE                     	if	0	;tblptru may be non-zero
  4504   0016CE                     	endif
  4505   0016CE                     	if	0	;tblptru may be non-zero
  4506   0016CE                     	endif
  4507   0016CE  0008               	tblrd		*
  4508   0016D0  50F5               	movf	tablat,w,c
  4509   0016D2  0900               	iorlw	0
  4510   0016D4  B4D8               	btfsc	status,2,c
  4511   0016D6  0012               	return	
  4512   0016D8  D7E6               	goto	i2l2842
  4513   0016DA                     __end_ofi2_MensajeLCD_Var:
  4514                           	callstack 0
  4515                           
  4516 ;; *************** function _printf *****************
  4517 ;; Defined at:
  4518 ;;		line 477 in file "C:\Program Files\Microchip\xc8\v2.50\pic\sources\c90\common\doprnt.c"
  4519 ;; Parameters:    Size  Location     Type
  4520 ;;  f               1   12[COMRAM] PTR const unsigned char 
  4521 ;;		 -> STR_11(19), 
  4522 ;; Auto vars:     Size  Location     Type
  4523 ;;  tmpval          4    0        struct .
  4524 ;;  val             2   19[COMRAM] unsigned int 
  4525 ;;  cp              2    0        PTR const unsigned char 
  4526 ;;  len             2    0        unsigned int 
  4527 ;;  c               1   21[COMRAM] unsigned char 
  4528 ;;  prec            1   18[COMRAM] char 
  4529 ;;  flag            1   17[COMRAM] unsigned char 
  4530 ;;  ap              1   16[COMRAM] PTR void [1]
  4531 ;;		 -> ?_printf(2), 
  4532 ;; Return value:  Size  Location     Type
  4533 ;;                  2   12[COMRAM] int 
  4534 ;; Registers used:
  4535 ;;		wreg, fsr2l, fsr2h, status,2, status,0, tblptrl, tblptrh, tblptru, prodl, prodh, cstack
  4536 ;; Tracked objects:
  4537 ;;		On entry : 0/0
  4538 ;;		On exit  : 0/0
  4539 ;;		Unchanged: 0/0
  4540 ;; Data sizes:     COMRAM   BANK0   BANK1   BANK2   BANK3   BANK4   BANK5   BANK6   BANK7
  4541 ;;      Params:         3       0       0       0       0       0       0       0       0
  4542 ;;      Locals:         6       0       0       0       0       0       0       0       0
  4543 ;;      Temps:          1       0       0       0       0       0       0       0       0
  4544 ;;      Totals:        10       0       0       0       0       0       0       0       0
  4545 ;;Total ram usage:       10 bytes
  4546 ;; Hardware stack levels used: 1
  4547 ;; Hardware stack levels required when called: 1
  4548 ;; This function calls:
  4549 ;;		___lwdiv
  4550 ;;		___lwmod
  4551 ;;		_putch
  4552 ;; This function is called by:
  4553 ;;		_ISR
  4554 ;; This function uses a non-reentrant model
  4555 ;;
  4556                           
  4557                           	psect	text24
  4558   000ED4                     __ptext24:
  4559                           	callstack 0
  4560   000ED4                     _printf:
  4561                           	callstack 21
  4562                           
  4563                           ;doprnt.c: 479: va_list ap;;doprnt.c: 512: char c;;doprnt.c: 521: signed char prec;;dopr
      +                          nt.c: 525: unsigned char flag;;doprnt.c: 540: union {;doprnt.c: 541: unsigned long vd;;d
      +                          oprnt.c: 542: double integ;;doprnt.c: 543: } tmpval;;doprnt.c: 545: unsigned int val;;do
      +                          prnt.c: 546: unsigned len;;doprnt.c: 547: const char * cp;;doprnt.c: 550: *ap = __va_sta
      +                          rt();
  4564                           
  4565                           ;incstack = 0
  4566   000ED4  0E0E               	movlw	low (?_printf+1)
  4567   000ED6  6E11               	movwf	printf@ap^0,c
  4568                           
  4569                           ;doprnt.c: 553: while((c = *f++)) {
  4570   000ED8  D07B               	goto	i2u146_40
  4571   000EDA                     i2l2758:
  4572                           
  4573                           ;doprnt.c: 555: if(c != '%')
  4574   000EDA  0E25               	movlw	37
  4575   000EDC  1816               	xorwf	printf@c^0,w,c
  4576   000EDE  B4D8               	btfsc	status,2,c
  4577   000EE0  D004               	goto	i2l459
  4578                           
  4579                           ;doprnt.c: 557: {;doprnt.c: 558: (putch(c) );
  4580   000EE2  5016               	movf	printf@c^0,w,c
  4581   000EE4  ECD6  F00C         	call	_putch
  4582                           
  4583                           ;doprnt.c: 559: continue;
  4584   000EE8  D073               	goto	i2u146_40
  4585   000EEA                     i2l459:
  4586                           
  4587                           ;doprnt.c: 560: };doprnt.c: 565: flag = 0;
  4588   000EEA  6A12               	clrf	printf@flag^0,c
  4589                           
  4590                           ;doprnt.c: 661: switch(c = *f++) {
  4591   000EEC  2A0D               	incf	printf@f^0,f,c
  4592   000EEE  040D               	decf	printf@f^0,w,c
  4593   000EF0  6E10               	movwf	??_printf^0,c
  4594   000EF2  C010  FFF6         	movff	??_printf,tblptrl
  4595   000EF6                     	if	1	;There is more than 1 active tblptr byte
  4596   000EF6  0E08               	movlw	high __smallconst
  4597   000EF8  6EF7               	movwf	tblptrh,c
  4598   000EFA                     	endif
  4599   000EFA                     	if	0	;tblptru may be non-zero
  4600   000EFA                     	endif
  4601   000EFA                     	if	0	;tblptru may be non-zero
  4602   000EFA                     	endif
  4603   000EFA  0008               	tblrd		*
  4604   000EFC  CFF5 F016          	movff	tablat,printf@c
  4605   000F00  5016               	movf	printf@c^0,w,c
  4606                           
  4607                           ; Switch size 1, requested type "simple"
  4608                           ; Number of cases is 3, Range of values is 0 to 105
  4609                           ; switch strategies available:
  4610                           ; Name         Instructions Cycles
  4611                           ; simple_byte           10     6 (average)
  4612                           ;	Chosen strategy is simple_byte
  4613   000F02  0A00               	xorlw	0	; case 0
  4614   000F04  B4D8               	btfsc	status,2,c
  4615   000F06  0012               	return	
  4616   000F08  0A64               	xorlw	100	; case 100
  4617   000F0A  B4D8               	btfsc	status,2,c
  4618   000F0C  D003               	goto	i2l2766
  4619   000F0E  0A0D               	xorlw	13	; case 105
  4620   000F10  A4D8               	btfss	status,2,c
  4621   000F12  D05E               	goto	i2u146_40
  4622   000F14                     i2l2766:
  4623                           
  4624                           ;doprnt.c: 1279: {;doprnt.c: 1285: val = (unsigned int)(*(int *)__va_arg((*(int **)ap), 
      +                          (int)0));
  4625   000F14  5011               	movf	printf@ap^0,w,c
  4626   000F16  6ED9               	movwf	fsr2l,c
  4627   000F18  6ADA               	clrf	fsr2h,c
  4628   000F1A  CFDE F014          	movff	postinc2,printf@val
  4629   000F1E  CFDD F015          	movff	postdec2,printf@val+1
  4630   000F22  0E02               	movlw	2
  4631   000F24  2611               	addwf	printf@ap^0,f,c
  4632                           
  4633                           ;doprnt.c: 1287: if((int)val < 0) {
  4634   000F26  AE15               	btfss	(printf@val+1)^0,7,c
  4635   000F28  D006               	goto	i2l2776
  4636                           
  4637                           ;doprnt.c: 1288: flag |= 0x03;
  4638   000F2A  0E03               	movlw	3
  4639   000F2C  1212               	iorwf	printf@flag^0,f,c
  4640                           
  4641                           ;doprnt.c: 1289: val = -val;
  4642   000F2E  6C14               	negf	printf@val^0,c
  4643   000F30  1E15               	comf	(printf@val+1)^0,f,c
  4644   000F32  B0D8               	btfsc	status,0,c
  4645   000F34  2A15               	incf	(printf@val+1)^0,f,c
  4646   000F36                     i2l2776:
  4647                           
  4648                           ;doprnt.c: 1290: };doprnt.c: 1292: };doprnt.c: 1331: for(c = 1 ; c != sizeof dpowers/siz
      +                          eof dpowers[0] ; c++)
  4649   000F36  0E01               	movlw	1
  4650   000F38  6E16               	movwf	printf@c^0,c
  4651   000F3A                     i2l2782:
  4652                           
  4653                           ;doprnt.c: 1332: if(val < dpowers[c])
  4654   000F3A  5016               	movf	printf@c^0,w,c
  4655   000F3C  0D02               	mullw	2
  4656   000F3E  50F3               	movf	243,w,c
  4657   000F40  0F01               	addlw	low _dpowers
  4658   000F42  6E10               	movwf	??_printf^0,c
  4659   000F44  C010  FFF6         	movff	??_printf,tblptrl
  4660   000F48                     	if	1	;There is more than 1 active tblptr byte
  4661   000F48  0E08               	movlw	high __smallconst
  4662   000F4A  6EF7               	movwf	tblptrh,c
  4663   000F4C                     	endif
  4664   000F4C                     	if	0	;tblptru may be non-zero
  4665   000F4C                     	endif
  4666   000F4C                     	if	0	;tblptru may be non-zero
  4667   000F4C                     	endif
  4668   000F4C  0009               	tblrd		*+
  4669   000F4E  50F5               	movf	tablat,w,c
  4670   000F50  5C14               	subwf	printf@val^0,w,c
  4671   000F52  0009               	tblrd		*+
  4672   000F54  50F5               	movf	tablat,w,c
  4673   000F56  5815               	subwfb	(printf@val+1)^0,w,c
  4674   000F58  A0D8               	btfss	status,0,c
  4675   000F5A  D005               	goto	i2u144_40
  4676   000F5C  2A16               	incf	printf@c^0,f,c
  4677   000F5E  0E05               	movlw	5
  4678   000F60  1816               	xorwf	printf@c^0,w,c
  4679   000F62  A4D8               	btfss	status,2,c
  4680   000F64  D7EA               	goto	i2l2782
  4681   000F66                     i2u144_40:
  4682                           
  4683                           ;doprnt.c: 1448: {;doprnt.c: 1464: if(flag & 0x03)
  4684   000F66  C012  F010         	movff	printf@flag,??_printf
  4685   000F6A  0E03               	movlw	3
  4686   000F6C  1610               	andwf	??_printf^0,f,c
  4687   000F6E  B4D8               	btfsc	status,2,c
  4688   000F70  D003               	goto	i2l2794
  4689                           
  4690                           ;doprnt.c: 1465: (putch('-') );
  4691   000F72  0E2D               	movlw	45
  4692   000F74  ECD6  F00C         	call	_putch
  4693   000F78                     i2l2794:
  4694                           
  4695                           ;doprnt.c: 1495: };doprnt.c: 1498: prec = c;
  4696   000F78  C016  F013         	movff	printf@c,printf@prec
  4697                           
  4698                           ;doprnt.c: 1500: while(prec--) {
  4699   000F7C  D025               	goto	i2l2800
  4700   000F7E                     i2l2796:
  4701                           
  4702                           ;doprnt.c: 1504: {;doprnt.c: 1515: c = (val / dpowers[(unsigned char)prec]) % 10 + '0';
  4703   000F7E  5013               	movf	printf@prec^0,w,c
  4704   000F80  0D02               	mullw	2
  4705   000F82  50F3               	movf	243,w,c
  4706   000F84  0F01               	addlw	low _dpowers
  4707   000F86  6E10               	movwf	??_printf^0,c
  4708   000F88  C010  FFF6         	movff	??_printf,tblptrl
  4709   000F8C                     	if	1	;There is more than 1 active tblptr byte
  4710   000F8C  0E08               	movlw	high __smallconst
  4711   000F8E  6EF7               	movwf	tblptrh,c
  4712   000F90                     	endif
  4713   000F90                     	if	0	;tblptru may be non-zero
  4714   000F90                     	endif
  4715   000F90                     	if	0	;tblptru may be non-zero
  4716   000F90                     	endif
  4717   000F90  0009               	tblrd		*+
  4718   000F92  CFF5 F003          	movff	tablat,___lwdiv@divisor
  4719   000F96  000A               	tblrd		*-
  4720   000F98  CFF5 F004          	movff	tablat,___lwdiv@divisor+1
  4721   000F9C  C014  F001         	movff	printf@val,___lwdiv@dividend
  4722   000FA0  C015  F002         	movff	printf@val+1,___lwdiv@dividend+1
  4723   000FA4  EC9B  F00A         	call	___lwdiv	;wreg free
  4724   000FA8  C001  F008         	movff	?___lwdiv,___lwmod@dividend
  4725   000FAC  C002  F009         	movff	?___lwdiv+1,___lwmod@dividend+1
  4726   000FB0  0E00               	movlw	0
  4727   000FB2  6E0B               	movwf	(___lwmod@divisor+1)^0,c
  4728   000FB4  0E0A               	movlw	10
  4729   000FB6  6E0A               	movwf	___lwmod@divisor^0,c
  4730   000FB8  EC0D  F00B         	call	___lwmod	;wreg free
  4731   000FBC  5008               	movf	?___lwmod^0,w,c
  4732   000FBE  0F30               	addlw	48
  4733   000FC0  6E16               	movwf	printf@c^0,c
  4734                           
  4735                           ;doprnt.c: 1549: };doprnt.c: 1550: (putch(c) );
  4736   000FC2  5016               	movf	printf@c^0,w,c
  4737   000FC4  ECD6  F00C         	call	_putch
  4738   000FC8                     i2l2800:
  4739   000FC8  0613               	decf	printf@prec^0,f,c
  4740   000FCA  2813               	incf	printf@prec^0,w,c
  4741   000FCC  A4D8               	btfss	status,2,c
  4742   000FCE  D7D7               	goto	i2l2796
  4743   000FD0                     i2u146_40:
  4744   000FD0  2A0D               	incf	printf@f^0,f,c
  4745   000FD2  040D               	decf	printf@f^0,w,c
  4746   000FD4  6E10               	movwf	??_printf^0,c
  4747   000FD6  C010  FFF6         	movff	??_printf,tblptrl
  4748   000FDA                     	if	1	;There is more than 1 active tblptr byte
  4749   000FDA  0E08               	movlw	high __smallconst
  4750   000FDC  6EF7               	movwf	tblptrh,c
  4751   000FDE                     	endif
  4752   000FDE                     	if	0	;tblptru may be non-zero
  4753   000FDE                     	endif
  4754   000FDE                     	if	0	;tblptru may be non-zero
  4755   000FDE                     	endif
  4756   000FDE  0008               	tblrd		*
  4757   000FE0  CFF5 F016          	movff	tablat,printf@c
  4758   000FE4  5016               	movf	printf@c^0,w,c
  4759   000FE6  B4D8               	btfsc	status,2,c
  4760   000FE8  0012               	return	
  4761   000FEA  D777               	goto	i2l2758
  4762   000FEC                     __end_of_printf:
  4763                           	callstack 0
  4764                           
  4765 ;; *************** function _putch *****************
  4766 ;; Defined at:
  4767 ;;		line 677 in file "Lab5.c"
  4768 ;; Parameters:    Size  Location     Type
  4769 ;;  data            1    wreg     unsigned char 
  4770 ;; Auto vars:     Size  Location     Type
  4771 ;;  data            1    0[COMRAM] unsigned char 
  4772 ;; Return value:  Size  Location     Type
  4773 ;;                  1    wreg      void 
  4774 ;; Registers used:
  4775 ;;		wreg
  4776 ;; Tracked objects:
  4777 ;;		On entry : 0/0
  4778 ;;		On exit  : 0/0
  4779 ;;		Unchanged: 0/0
  4780 ;; Data sizes:     COMRAM   BANK0   BANK1   BANK2   BANK3   BANK4   BANK5   BANK6   BANK7
  4781 ;;      Params:         0       0       0       0       0       0       0       0       0
  4782 ;;      Locals:         1       0       0       0       0       0       0       0       0
  4783 ;;      Temps:          0       0       0       0       0       0       0       0       0
  4784 ;;      Totals:         1       0       0       0       0       0       0       0       0
  4785 ;;Total ram usage:        1 bytes
  4786 ;; Hardware stack levels used: 1
  4787 ;; This function calls:
  4788 ;;		Nothing
  4789 ;; This function is called by:
  4790 ;;		_printf
  4791 ;; This function uses a non-reentrant model
  4792 ;;
  4793                           
  4794                           	psect	text25
  4795   0019AC                     __ptext25:
  4796                           	callstack 0
  4797   0019AC                     _putch:
  4798                           	callstack 21
  4799                           
  4800                           ;incstack = 0
  4801                           ;putch@data stored from wreg
  4802   0019AC  6E01               	movwf	putch@data^0,c
  4803   0019AE                     
  4804                           ;Lab5.c: 679: while(TRMT == 0);
  4805   0019AE  A2AC               	btfss	4012,1,c	;volatile
  4806   0019B0  D7FE               	goto	i2l1520
  4807                           
  4808                           ;Lab5.c: 680: TXREG = data;
  4809   0019B2  C001  FFAD         	movff	putch@data,4013	;volatile
  4810   0019B6  0012               	return		;funcret
  4811   0019B8                     __end_of_putch:
  4812                           	callstack 0
  4813                           
  4814 ;; *************** function ___lwmod *****************
  4815 ;; Defined at:
  4816 ;;		line 7 in file "C:\Program Files\Microchip\xc8\v2.50\pic\sources\c90\common\lwmod.c"
  4817 ;; Parameters:    Size  Location     Type
  4818 ;;  dividend        2    7[COMRAM] unsigned int 
  4819 ;;  divisor         2    9[COMRAM] unsigned int 
  4820 ;; Auto vars:     Size  Location     Type
  4821 ;;  counter         1   11[COMRAM] unsigned char 
  4822 ;; Return value:  Size  Location     Type
  4823 ;;                  2    7[COMRAM] unsigned int 
  4824 ;; Registers used:
  4825 ;;		wreg, status,2, status,0
  4826 ;; Tracked objects:
  4827 ;;		On entry : 0/0
  4828 ;;		On exit  : 0/0
  4829 ;;		Unchanged: 0/0
  4830 ;; Data sizes:     COMRAM   BANK0   BANK1   BANK2   BANK3   BANK4   BANK5   BANK6   BANK7
  4831 ;;      Params:         4       0       0       0       0       0       0       0       0
  4832 ;;      Locals:         1       0       0       0       0       0       0       0       0
  4833 ;;      Temps:          0       0       0       0       0       0       0       0       0
  4834 ;;      Totals:         5       0       0       0       0       0       0       0       0
  4835 ;;Total ram usage:        5 bytes
  4836 ;; Hardware stack levels used: 1
  4837 ;; This function calls:
  4838 ;;		Nothing
  4839 ;; This function is called by:
  4840 ;;		_printf
  4841 ;; This function uses a non-reentrant model
  4842 ;;
  4843                           
  4844                           	psect	text26
  4845   00161A                     __ptext26:
  4846                           	callstack 0
  4847   00161A                     ___lwmod:
  4848                           	callstack 21
  4849                           
  4850                           ;incstack = 0
  4851   00161A  500A               	movf	___lwmod@divisor^0,w,c
  4852   00161C  100B               	iorwf	(___lwmod@divisor+1)^0,w,c
  4853   00161E  B4D8               	btfsc	status,2,c
  4854   001620  D018               	goto	i2l968
  4855   001622  0E01               	movlw	1
  4856   001624  6E0C               	movwf	___lwmod@counter^0,c
  4857   001626  D004               	goto	i2l2568
  4858   001628                     i2l2566:
  4859   001628  90D8               	bcf	status,0,c
  4860   00162A  360A               	rlcf	___lwmod@divisor^0,f,c
  4861   00162C  360B               	rlcf	(___lwmod@divisor+1)^0,f,c
  4862   00162E  2A0C               	incf	___lwmod@counter^0,f,c
  4863   001630                     i2l2568:
  4864   001630  AE0B               	btfss	(___lwmod@divisor+1)^0,7,c
  4865   001632  D7FA               	goto	i2l2566
  4866   001634                     i2u134_40:
  4867   001634  500A               	movf	___lwmod@divisor^0,w,c
  4868   001636  5C08               	subwf	___lwmod@dividend^0,w,c
  4869   001638  500B               	movf	(___lwmod@divisor+1)^0,w,c
  4870   00163A  5809               	subwfb	(___lwmod@dividend+1)^0,w,c
  4871   00163C  A0D8               	btfss	status,0,c
  4872   00163E  D004               	goto	i2l2574
  4873   001640  500A               	movf	___lwmod@divisor^0,w,c
  4874   001642  5E08               	subwf	___lwmod@dividend^0,f,c
  4875   001644  500B               	movf	(___lwmod@divisor+1)^0,w,c
  4876   001646  5A09               	subwfb	(___lwmod@dividend+1)^0,f,c
  4877   001648                     i2l2574:
  4878   001648  90D8               	bcf	status,0,c
  4879   00164A  320B               	rrcf	(___lwmod@divisor+1)^0,f,c
  4880   00164C  320A               	rrcf	___lwmod@divisor^0,f,c
  4881   00164E  2E0C               	decfsz	___lwmod@counter^0,f,c
  4882   001650  D7F1               	goto	i2u134_40
  4883   001652                     i2l968:
  4884   001652  C008  F008         	movff	___lwmod@dividend,?___lwmod
  4885   001656  C009  F009         	movff	___lwmod@dividend+1,?___lwmod+1
  4886   00165A  0012               	return		;funcret
  4887   00165C                     __end_of___lwmod:
  4888                           	callstack 0
  4889                           
  4890 ;; *************** function ___lwdiv *****************
  4891 ;; Defined at:
  4892 ;;		line 7 in file "C:\Program Files\Microchip\xc8\v2.50\pic\sources\c90\common\lwdiv.c"
  4893 ;; Parameters:    Size  Location     Type
  4894 ;;  dividend        2    0[COMRAM] unsigned int 
  4895 ;;  divisor         2    2[COMRAM] unsigned int 
  4896 ;; Auto vars:     Size  Location     Type
  4897 ;;  quotient        2    4[COMRAM] unsigned int 
  4898 ;;  counter         1    6[COMRAM] unsigned char 
  4899 ;; Return value:  Size  Location     Type
  4900 ;;                  2    0[COMRAM] unsigned int 
  4901 ;; Registers used:
  4902 ;;		wreg, status,2, status,0
  4903 ;; Tracked objects:
  4904 ;;		On entry : 0/0
  4905 ;;		On exit  : 0/0
  4906 ;;		Unchanged: 0/0
  4907 ;; Data sizes:     COMRAM   BANK0   BANK1   BANK2   BANK3   BANK4   BANK5   BANK6   BANK7
  4908 ;;      Params:         4       0       0       0       0       0       0       0       0
  4909 ;;      Locals:         3       0       0       0       0       0       0       0       0
  4910 ;;      Temps:          0       0       0       0       0       0       0       0       0
  4911 ;;      Totals:         7       0       0       0       0       0       0       0       0
  4912 ;;Total ram usage:        7 bytes
  4913 ;; Hardware stack levels used: 1
  4914 ;; This function calls:
  4915 ;;		Nothing
  4916 ;; This function is called by:
  4917 ;;		_ISR
  4918 ;;		_printf
  4919 ;; This function uses a non-reentrant model
  4920 ;;
  4921                           
  4922                           	psect	text27
  4923   001536                     __ptext27:
  4924                           	callstack 0
  4925   001536                     ___lwdiv:
  4926                           	callstack 21
  4927                           
  4928                           ;incstack = 0
  4929   001536  0E00               	movlw	0
  4930   001538  6E06               	movwf	(___lwdiv@quotient+1)^0,c
  4931   00153A  0E00               	movlw	0
  4932   00153C  6E05               	movwf	___lwdiv@quotient^0,c
  4933   00153E  5003               	movf	___lwdiv@divisor^0,w,c
  4934   001540  1004               	iorwf	(___lwdiv@divisor+1)^0,w,c
  4935   001542  B4D8               	btfsc	status,2,c
  4936   001544  D01C               	goto	i2l958
  4937   001546  0E01               	movlw	1
  4938   001548  6E07               	movwf	___lwdiv@counter^0,c
  4939   00154A  D004               	goto	i2l2548
  4940   00154C                     i2l2546:
  4941   00154C  90D8               	bcf	status,0,c
  4942   00154E  3603               	rlcf	___lwdiv@divisor^0,f,c
  4943   001550  3604               	rlcf	(___lwdiv@divisor+1)^0,f,c
  4944   001552  2A07               	incf	___lwdiv@counter^0,f,c
  4945   001554                     i2l2548:
  4946   001554  AE04               	btfss	(___lwdiv@divisor+1)^0,7,c
  4947   001556  D7FA               	goto	i2l2546
  4948   001558                     i2u131_40:
  4949   001558  90D8               	bcf	status,0,c
  4950   00155A  3605               	rlcf	___lwdiv@quotient^0,f,c
  4951   00155C  3606               	rlcf	(___lwdiv@quotient+1)^0,f,c
  4952   00155E  5003               	movf	___lwdiv@divisor^0,w,c
  4953   001560  5C01               	subwf	___lwdiv@dividend^0,w,c
  4954   001562  5004               	movf	(___lwdiv@divisor+1)^0,w,c
  4955   001564  5802               	subwfb	(___lwdiv@dividend+1)^0,w,c
  4956   001566  A0D8               	btfss	status,0,c
  4957   001568  D005               	goto	i2l2558
  4958   00156A  5003               	movf	___lwdiv@divisor^0,w,c
  4959   00156C  5E01               	subwf	___lwdiv@dividend^0,f,c
  4960   00156E  5004               	movf	(___lwdiv@divisor+1)^0,w,c
  4961   001570  5A02               	subwfb	(___lwdiv@dividend+1)^0,f,c
  4962   001572  8005               	bsf	___lwdiv@quotient^0,0,c
  4963   001574                     i2l2558:
  4964   001574  90D8               	bcf	status,0,c
  4965   001576  3204               	rrcf	(___lwdiv@divisor+1)^0,f,c
  4966   001578  3203               	rrcf	___lwdiv@divisor^0,f,c
  4967   00157A  2E07               	decfsz	___lwdiv@counter^0,f,c
  4968   00157C  D7ED               	goto	i2u131_40
  4969   00157E                     i2l958:
  4970   00157E  C005  F001         	movff	___lwdiv@quotient,?___lwdiv
  4971   001582  C006  F002         	movff	___lwdiv@quotient+1,?___lwdiv+1
  4972   001586  0012               	return		;funcret
  4973   001588                     __end_of___lwdiv:
  4974                           	callstack 0
  4975                           
  4976 ;; *************** function _Conversion *****************
  4977 ;; Defined at:
  4978 ;;		line 665 in file "Lab5.c"
  4979 ;; Parameters:    Size  Location     Type
  4980 ;;  canal           1    wreg     unsigned char 
  4981 ;; Auto vars:     Size  Location     Type
  4982 ;;  canal           1    2[COMRAM] unsigned char 
  4983 ;; Return value:  Size  Location     Type
  4984 ;;                  2    0[COMRAM] unsigned int 
  4985 ;; Registers used:
  4986 ;;		wreg, status,2, status,0
  4987 ;; Tracked objects:
  4988 ;;		On entry : 0/0
  4989 ;;		On exit  : 0/0
  4990 ;;		Unchanged: 0/0
  4991 ;; Data sizes:     COMRAM   BANK0   BANK1   BANK2   BANK3   BANK4   BANK5   BANK6   BANK7
  4992 ;;      Params:         2       0       0       0       0       0       0       0       0
  4993 ;;      Locals:         1       0       0       0       0       0       0       0       0
  4994 ;;      Temps:          0       0       0       0       0       0       0       0       0
  4995 ;;      Totals:         3       0       0       0       0       0       0       0       0
  4996 ;;Total ram usage:        3 bytes
  4997 ;; Hardware stack levels used: 1
  4998 ;; This function calls:
  4999 ;;		Nothing
  5000 ;; This function is called by:
  5001 ;;		_ISR
  5002 ;; This function uses a non-reentrant model
  5003 ;;
  5004                           
  5005                           	psect	text28
  5006   0018C6                     __ptext28:
  5007                           	callstack 0
  5008   0018C6                     _Conversion:
  5009                           	callstack 22
  5010                           
  5011                           ;incstack = 0
  5012                           ;Conversion@canal stored from wreg
  5013   0018C6  6E03               	movwf	Conversion@canal^0,c
  5014                           
  5015                           ;Lab5.c: 667: ADCON0 = (canal << 2);
  5016   0018C8  4403               	rlncf	Conversion@canal^0,w,c
  5017   0018CA  46E8               	rlncf	wreg,f,c
  5018   0018CC  0BFC               	andlw	252
  5019   0018CE  6EC2               	movwf	194,c	;volatile
  5020                           
  5021                           ;Lab5.c: 670: ADON = 1;
  5022   0018D0  80C2               	bsf	4034,0,c	;volatile
  5023                           
  5024                           ;Lab5.c: 671: GO_DONE = 1;
  5025   0018D2  82C2               	bsf	4034,1,c	;volatile
  5026   0018D4                     i2l437:
  5027   0018D4  B2C2               	btfsc	4034,1,c	;volatile
  5028   0018D6  D7FE               	goto	i2l437
  5029                           
  5030                           ;Lab5.c: 674: return ADRES;
  5031   0018D8  CFC3 F001          	movff	4035,?_Conversion	;volatile
  5032   0018DC  CFC4 F002          	movff	4036,?_Conversion+1	;volatile
  5033   0018E0  0012               	return		;funcret
  5034   0018E2                     __end_of_Conversion:
  5035                           	callstack 0
  5036                           
  5037 ;; *************** function _ConfigPregunta *****************
  5038 ;; Defined at:
  5039 ;;		line 634 in file "Lab5.c"
  5040 ;; Parameters:    Size  Location     Type
  5041 ;;		None
  5042 ;; Auto vars:     Size  Location     Type
  5043 ;;		None
  5044 ;; Return value:  Size  Location     Type
  5045 ;;                  1    wreg      void 
  5046 ;; Registers used:
  5047 ;;		wreg, status,2, status,0, prodl, prodh, cstack
  5048 ;; Tracked objects:
  5049 ;;		On entry : 0/0
  5050 ;;		On exit  : 0/0
  5051 ;;		Unchanged: 0/0
  5052 ;; Data sizes:     COMRAM   BANK0   BANK1   BANK2   BANK3   BANK4   BANK5   BANK6   BANK7
  5053 ;;      Params:         0       0       0       0       0       0       0       0       0
  5054 ;;      Locals:         0       0       0       0       0       0       0       0       0
  5055 ;;      Temps:          2       0       0       0       0       0       0       0       0
  5056 ;;      Totals:         2       0       0       0       0       0       0       0       0
  5057 ;;Total ram usage:        2 bytes
  5058 ;; Hardware stack levels used: 1
  5059 ;; Hardware stack levels required when called: 6
  5060 ;; This function calls:
  5061 ;;		i2_EscribeLCD_n8
  5062 ;;		i2_OcultarCursor
  5063 ;; This function is called by:
  5064 ;;		_ISR
  5065 ;; This function uses a non-reentrant model
  5066 ;;
  5067                           
  5068                           	psect	text29
  5069   001486                     __ptext29:
  5070                           	callstack 0
  5071   001486                     _ConfigPregunta:
  5072                           	callstack 16
  5073                           
  5074                           ;Lab5.c: 636: if(indiceDigitoObjetivo == 0 && modoEdicionObjetivo == 1){
  5075                           
  5076                           ;incstack = 0
  5077   001486  5034               	movf	_indiceDigitoObjetivo^0,w,c
  5078   001488  A4D8               	btfss	status,2,c
  5079   00148A  D00C               	goto	i2l2812
  5080   00148C  0433               	decf	_modoEdicionObjetivo^0,w,c
  5081   00148E  A4D8               	btfss	status,2,c
  5082   001490  D009               	goto	i2l2812
  5083                           
  5084                           ;Lab5.c: 638: EscribeLCD_n8(teclaLeida, 1);
  5085   001492  0E01               	movlw	1
  5086   001494  6E09               	movwf	i2EscribeLCD_n8@b^0,c
  5087   001496  5031               	movf	_teclaLeida^0,w,c
  5088   001498  EC6D  F008         	call	i2_EscribeLCD_n8
  5089                           
  5090                           ;Lab5.c: 639: piezasObjetivo = teclaLeida;
  5091   00149C  C031  F025         	movff	_teclaLeida,_piezasObjetivo
  5092   0014A0  6A26               	clrf	(_piezasObjetivo+1)^0,c
  5093                           
  5094                           ;Lab5.c: 640: }
  5095   0014A2  D01C               	goto	i2l2822
  5096   0014A4                     i2l2812:
  5097                           
  5098                           ;Lab5.c: 641: else if(indiceDigitoObjetivo == 1 && modoEdicionObjetivo == 1){
  5099   0014A4  0434               	decf	_indiceDigitoObjetivo^0,w,c
  5100   0014A6  A4D8               	btfss	status,2,c
  5101   0014A8  D019               	goto	i2l2822
  5102   0014AA  0433               	decf	_modoEdicionObjetivo^0,w,c
  5103   0014AC  A4D8               	btfss	status,2,c
  5104   0014AE  D016               	goto	i2l2822
  5105                           
  5106                           ;Lab5.c: 643: EscribeLCD_n8(teclaLeida, 1);
  5107   0014B0  0E01               	movlw	1
  5108   0014B2  6E09               	movwf	i2EscribeLCD_n8@b^0,c
  5109   0014B4  5031               	movf	_teclaLeida^0,w,c
  5110   0014B6  EC6D  F008         	call	i2_EscribeLCD_n8
  5111                           
  5112                           ;Lab5.c: 644: piezasObjetivo = piezasObjetivo * 10 + teclaLeida;
  5113   0014BA  0E0A               	movlw	10
  5114   0014BC  0225               	mulwf	_piezasObjetivo^0,c
  5115   0014BE  CFF3 F00E          	movff	prodl,??_ConfigPregunta
  5116   0014C2  CFF4 F00F          	movff	prodh,??_ConfigPregunta+1
  5117   0014C6  0226               	mulwf	(_piezasObjetivo+1)^0,c
  5118   0014C8  50F3               	movf	prodl,w,c
  5119   0014CA  260F               	addwf	(??_ConfigPregunta+1)^0,f,c
  5120   0014CC  5031               	movf	_teclaLeida^0,w,c
  5121   0014CE  240E               	addwf	??_ConfigPregunta^0,w,c
  5122   0014D0  6E25               	movwf	_piezasObjetivo^0,c
  5123   0014D2  0E00               	movlw	0
  5124   0014D4  200F               	addwfc	(??_ConfigPregunta+1)^0,w,c
  5125   0014D6  6E26               	movwf	(_piezasObjetivo+1)^0,c
  5126                           
  5127                           ;Lab5.c: 645: OcultarCursor();
  5128   0014D8  ECE8  F00C         	call	i2_OcultarCursor	;wreg free
  5129   0014DC                     i2l2822:
  5130                           
  5131                           ;Lab5.c: 646: };Lab5.c: 648: indiceDigitoObjetivo++;
  5132   0014DC  2A34               	incf	_indiceDigitoObjetivo^0,f,c
  5133   0014DE  0012               	return		;funcret
  5134   0014E0                     __end_of_ConfigPregunta:
  5135                           	callstack 0
  5136                           
  5137 ;; *************** function i2_OcultarCursor *****************
  5138 ;; Defined at:
  5139 ;;		line 323 in file "LibLCDXC8_1.h"
  5140 ;; Parameters:    Size  Location     Type
  5141 ;;		None
  5142 ;; Auto vars:     Size  Location     Type
  5143 ;;		None
  5144 ;; Return value:  Size  Location     Type
  5145 ;;                  1    wreg      void 
  5146 ;; Registers used:
  5147 ;;		wreg, status,2, status,0, cstack
  5148 ;; Tracked objects:
  5149 ;;		On entry : 0/0
  5150 ;;		On exit  : 0/0
  5151 ;;		Unchanged: 0/0
  5152 ;; Data sizes:     COMRAM   BANK0   BANK1   BANK2   BANK3   BANK4   BANK5   BANK6   BANK7
  5153 ;;      Params:         0       0       0       0       0       0       0       0       0
  5154 ;;      Locals:         0       0       0       0       0       0       0       0       0
  5155 ;;      Temps:          0       0       0       0       0       0       0       0       0
  5156 ;;      Totals:         0       0       0       0       0       0       0       0       0
  5157 ;;Total ram usage:        0 bytes
  5158 ;; Hardware stack levels used: 1
  5159 ;; Hardware stack levels required when called: 5
  5160 ;; This function calls:
  5161 ;;		i2_ComandoLCD
  5162 ;; This function is called by:
  5163 ;;		_ISR
  5164 ;;		_ConfigPregunta
  5165 ;; This function uses a non-reentrant model
  5166 ;;
  5167                           
  5168                           	psect	text30
  5169   0019D0                     __ptext30:
  5170                           	callstack 0
  5171   0019D0                     i2_OcultarCursor:
  5172                           	callstack 17
  5173                           
  5174                           ;LibLCDXC8_1.h: 324: ComandoLCD(0xC);
  5175                           
  5176                           ;incstack = 0
  5177   0019D0  0E0C               	movlw	12
  5178   0019D2  ECFC  F00B         	call	i2_ComandoLCD
  5179   0019D6  0012               	return		;funcret
  5180   0019D8                     __end_ofi2_OcultarCursor:
  5181                           	callstack 0
  5182                           
  5183 ;; *************** function i2_EscribeLCD_n8 *****************
  5184 ;; Defined at:
  5185 ;;		line 149 in file "LibLCDXC8_1.h"
  5186 ;; Parameters:    Size  Location     Type
  5187 ;;  a               1    wreg     unsigned char 
  5188 ;;  b               1    8[COMRAM] unsigned char 
  5189 ;; Auto vars:     Size  Location     Type
  5190 ;;  a               1   12[COMRAM] unsigned char 
  5191 ;;  unidad          1   11[COMRAM] unsigned char 
  5192 ;;  decena          1   10[COMRAM] unsigned char 
  5193 ;;  centena         1    9[COMRAM] unsigned char 
  5194 ;; Return value:  Size  Location     Type
  5195 ;;                  1    wreg      void 
  5196 ;; Registers used:
  5197 ;;		wreg, status,2, status,0, cstack
  5198 ;; Tracked objects:
  5199 ;;		On entry : 0/0
  5200 ;;		On exit  : 0/0
  5201 ;;		Unchanged: 0/0
  5202 ;; Data sizes:     COMRAM   BANK0   BANK1   BANK2   BANK3   BANK4   BANK5   BANK6   BANK7
  5203 ;;      Params:         1       0       0       0       0       0       0       0       0
  5204 ;;      Locals:         4       0       0       0       0       0       0       0       0
  5205 ;;      Temps:          0       0       0       0       0       0       0       0       0
  5206 ;;      Totals:         5       0       0       0       0       0       0       0       0
  5207 ;;Total ram usage:        5 bytes
  5208 ;; Hardware stack levels used: 1
  5209 ;; Hardware stack levels required when called: 2
  5210 ;; This function calls:
  5211 ;;		i2_EnviaDato
  5212 ;;		i2_HabilitaLCD
  5213 ;;		i2_RetardoLCD
  5214 ;;		i2___lbdiv
  5215 ;;		i2___lbmod
  5216 ;; This function is called by:
  5217 ;;		_ISR
  5218 ;;		_ConfigPregunta
  5219 ;; This function uses a non-reentrant model
  5220 ;;
  5221                           
  5222                           	psect	text31
  5223   0010DA                     __ptext31:
  5224                           	callstack 0
  5225   0010DA                     i2_EscribeLCD_n8:
  5226                           	callstack 20
  5227                           
  5228                           ;incstack = 0
  5229                           ;i2EscribeLCD_n8@a stored from wreg
  5230   0010DA  6E0D               	movwf	i2EscribeLCD_n8@a^0,c
  5231                           
  5232                           ;LibLCDXC8_1.h: 154: unsigned char centena,decena,unidad;;LibLCDXC8_1.h: 155: LATA4=1;
  5233   0010DC  8889               	bsf	3977,4,c	;volatile
  5234                           
  5235                           ;LibLCDXC8_1.h: 156: switch(b){
  5236   0010DE  D065               	goto	i2l2620
  5237   0010E0                     i2l2588:
  5238   0010E0  0E0A               	movlw	10
  5239   0010E2  6E01               	movwf	i2___lbmod@divisor^0,c
  5240   0010E4  500D               	movf	i2EscribeLCD_n8@a^0,w,c
  5241   0010E6  EC41  F00C         	call	i2___lbmod
  5242   0010EA  6E0C               	movwf	i2EscribeLCD_n8@unidad^0,c
  5243                           
  5244                           ;LibLCDXC8_1.h: 158: EnviaDato(unidad+48);
  5245   0010EC  500C               	movf	i2EscribeLCD_n8@unidad^0,w,c
  5246   0010EE  0F30               	addlw	48
  5247   0010F0  ECEA  F00A         	call	i2_EnviaDato
  5248                           
  5249                           ;LibLCDXC8_1.h: 159: HabilitaLCD();
  5250   0010F4  ECCF  F00C         	call	i2_HabilitaLCD	;wreg free
  5251                           
  5252                           ;LibLCDXC8_1.h: 160: RetardoLCD(4);
  5253   0010F8  0E04               	movlw	4
  5254   0010FA  EC70  F00A         	call	i2_RetardoLCD
  5255                           
  5256                           ;LibLCDXC8_1.h: 161: break;
  5257   0010FE  0012               	return	
  5258   001100                     i2l2594:
  5259   001100  0E0A               	movlw	10
  5260   001102  6E05               	movwf	i2___lbdiv@divisor^0,c
  5261   001104  0E64               	movlw	100
  5262   001106  6E01               	movwf	i2___lbmod@divisor^0,c
  5263   001108  500D               	movf	i2EscribeLCD_n8@a^0,w,c
  5264   00110A  EC41  F00C         	call	i2___lbmod
  5265   00110E  ECC5  F00B         	call	i2___lbdiv
  5266   001112  6E0B               	movwf	i2EscribeLCD_n8@decena^0,c
  5267                           
  5268                           ;LibLCDXC8_1.h: 163: unidad=a%10;
  5269   001114  0E0A               	movlw	10
  5270   001116  6E01               	movwf	i2___lbmod@divisor^0,c
  5271   001118  500D               	movf	i2EscribeLCD_n8@a^0,w,c
  5272   00111A  EC41  F00C         	call	i2___lbmod
  5273   00111E  6E0C               	movwf	i2EscribeLCD_n8@unidad^0,c
  5274                           
  5275                           ;LibLCDXC8_1.h: 164: EnviaDato(decena+48);
  5276   001120  500B               	movf	i2EscribeLCD_n8@decena^0,w,c
  5277   001122  0F30               	addlw	48
  5278   001124  ECEA  F00A         	call	i2_EnviaDato
  5279                           
  5280                           ;LibLCDXC8_1.h: 165: HabilitaLCD();
  5281   001128  ECCF  F00C         	call	i2_HabilitaLCD	;wreg free
  5282                           
  5283                           ;LibLCDXC8_1.h: 166: RetardoLCD(4);
  5284   00112C  0E04               	movlw	4
  5285   00112E  EC70  F00A         	call	i2_RetardoLCD
  5286                           
  5287                           ;LibLCDXC8_1.h: 167: EnviaDato(unidad+48);
  5288   001132  500C               	movf	i2EscribeLCD_n8@unidad^0,w,c
  5289   001134  0F30               	addlw	48
  5290   001136  ECEA  F00A         	call	i2_EnviaDato
  5291                           
  5292                           ;LibLCDXC8_1.h: 168: HabilitaLCD();
  5293   00113A  ECCF  F00C         	call	i2_HabilitaLCD	;wreg free
  5294                           
  5295                           ;LibLCDXC8_1.h: 169: RetardoLCD(4);
  5296   00113E  0E04               	movlw	4
  5297   001140  EC70  F00A         	call	i2_RetardoLCD
  5298                           
  5299                           ;LibLCDXC8_1.h: 170: break;
  5300   001144  0012               	return	
  5301   001146                     i2l2604:
  5302   001146  0E64               	movlw	100
  5303   001148  6E05               	movwf	i2___lbdiv@divisor^0,c
  5304   00114A  500D               	movf	i2EscribeLCD_n8@a^0,w,c
  5305   00114C  ECC5  F00B         	call	i2___lbdiv
  5306   001150  6E0A               	movwf	i2EscribeLCD_n8@centena^0,c
  5307                           
  5308                           ;LibLCDXC8_1.h: 172: decena=(a%100)/10;
  5309   001152  0E0A               	movlw	10
  5310   001154  6E05               	movwf	i2___lbdiv@divisor^0,c
  5311   001156  0E64               	movlw	100
  5312   001158  6E01               	movwf	i2___lbmod@divisor^0,c
  5313   00115A  500D               	movf	i2EscribeLCD_n8@a^0,w,c
  5314   00115C  EC41  F00C         	call	i2___lbmod
  5315   001160  ECC5  F00B         	call	i2___lbdiv
  5316   001164  6E0B               	movwf	i2EscribeLCD_n8@decena^0,c
  5317                           
  5318                           ;LibLCDXC8_1.h: 173: unidad=a%10;
  5319   001166  0E0A               	movlw	10
  5320   001168  6E01               	movwf	i2___lbmod@divisor^0,c
  5321   00116A  500D               	movf	i2EscribeLCD_n8@a^0,w,c
  5322   00116C  EC41  F00C         	call	i2___lbmod
  5323   001170  6E0C               	movwf	i2EscribeLCD_n8@unidad^0,c
  5324                           
  5325                           ;LibLCDXC8_1.h: 174: EnviaDato(centena+48);
  5326   001172  500A               	movf	i2EscribeLCD_n8@centena^0,w,c
  5327   001174  0F30               	addlw	48
  5328   001176  ECEA  F00A         	call	i2_EnviaDato
  5329                           
  5330                           ;LibLCDXC8_1.h: 175: HabilitaLCD();
  5331   00117A  ECCF  F00C         	call	i2_HabilitaLCD	;wreg free
  5332                           
  5333                           ;LibLCDXC8_1.h: 176: RetardoLCD(4);
  5334   00117E  0E04               	movlw	4
  5335   001180  EC70  F00A         	call	i2_RetardoLCD
  5336                           
  5337                           ;LibLCDXC8_1.h: 177: EnviaDato(decena+48);
  5338   001184  500B               	movf	i2EscribeLCD_n8@decena^0,w,c
  5339   001186  0F30               	addlw	48
  5340   001188  ECEA  F00A         	call	i2_EnviaDato
  5341                           
  5342                           ;LibLCDXC8_1.h: 178: HabilitaLCD();
  5343   00118C  ECCF  F00C         	call	i2_HabilitaLCD	;wreg free
  5344                           
  5345                           ;LibLCDXC8_1.h: 179: RetardoLCD(4);
  5346   001190  0E04               	movlw	4
  5347   001192  EC70  F00A         	call	i2_RetardoLCD
  5348                           
  5349                           ;LibLCDXC8_1.h: 180: EnviaDato(unidad+48);
  5350   001196  500C               	movf	i2EscribeLCD_n8@unidad^0,w,c
  5351   001198  0F30               	addlw	48
  5352   00119A  ECEA  F00A         	call	i2_EnviaDato
  5353                           
  5354                           ;LibLCDXC8_1.h: 181: HabilitaLCD();
  5355   00119E  ECCF  F00C         	call	i2_HabilitaLCD	;wreg free
  5356                           
  5357                           ;LibLCDXC8_1.h: 182: RetardoLCD(4);
  5358   0011A2  0E04               	movlw	4
  5359   0011A4  EC70  F00A         	call	i2_RetardoLCD
  5360                           
  5361                           ;LibLCDXC8_1.h: 183: break;
  5362   0011A8  0012               	return	
  5363   0011AA                     i2l2620:
  5364   0011AA  5009               	movf	i2EscribeLCD_n8@b^0,w,c
  5365                           
  5366                           ; Switch size 1, requested type "simple"
  5367                           ; Number of cases is 3, Range of values is 1 to 3
  5368                           ; switch strategies available:
  5369                           ; Name         Instructions Cycles
  5370                           ; simple_byte           10     6 (average)
  5371                           ;	Chosen strategy is simple_byte
  5372   0011AC  0A01               	xorlw	1	; case 1
  5373   0011AE  B4D8               	btfsc	status,2,c
  5374   0011B0  D797               	goto	i2l2588
  5375   0011B2  0A03               	xorlw	3	; case 2
  5376   0011B4  B4D8               	btfsc	status,2,c
  5377   0011B6  D7A4               	goto	i2l2594
  5378   0011B8  0A01               	xorlw	1	; case 3
  5379   0011BA  A4D8               	btfss	status,2,c
  5380   0011BC  0012               	return	
  5381   0011BE  D7C3               	goto	i2l2604
  5382   0011C0                     __end_ofi2_EscribeLCD_n8:
  5383                           	callstack 0
  5384                           
  5385 ;; *************** function i2___lbmod *****************
  5386 ;; Defined at:
  5387 ;;		line 4 in file "C:\Program Files\Microchip\xc8\v2.50\pic\sources\c90\common\lbmod.c"
  5388 ;; Parameters:    Size  Location     Type
  5389 ;;  dividend        1    wreg     unsigned char 
  5390 ;;  divisor         1    0[COMRAM] unsigned char 
  5391 ;; Auto vars:     Size  Location     Type
  5392 ;;  dividend        1    1[COMRAM] unsigned char 
  5393 ;;  rem             1    3[COMRAM] unsigned char 
  5394 ;;  counter         1    2[COMRAM] unsigned char 
  5395 ;; Return value:  Size  Location     Type
  5396 ;;                  1    wreg      unsigned char 
  5397 ;; Registers used:
  5398 ;;		wreg, status,2, status,0
  5399 ;; Tracked objects:
  5400 ;;		On entry : 0/0
  5401 ;;		On exit  : 0/0
  5402 ;;		Unchanged: 0/0
  5403 ;; Data sizes:     COMRAM   BANK0   BANK1   BANK2   BANK3   BANK4   BANK5   BANK6   BANK7
  5404 ;;      Params:         1       0       0       0       0       0       0       0       0
  5405 ;;      Locals:         3       0       0       0       0       0       0       0       0
  5406 ;;      Temps:          0       0       0       0       0       0       0       0       0
  5407 ;;      Totals:         4       0       0       0       0       0       0       0       0
  5408 ;;Total ram usage:        4 bytes
  5409 ;; Hardware stack levels used: 1
  5410 ;; This function calls:
  5411 ;;		Nothing
  5412 ;; This function is called by:
  5413 ;;		i2_EscribeLCD_n8
  5414 ;; This function uses a non-reentrant model
  5415 ;;
  5416                           
  5417                           	psect	text32
  5418   001882                     __ptext32:
  5419                           	callstack 0
  5420   001882                     i2___lbmod:
  5421                           	callstack 21
  5422                           
  5423                           ;incstack = 0
  5424                           ;i2___lbmod@dividend stored from wreg
  5425   001882  6E02               	movwf	i2___lbmod@dividend^0,c
  5426   001884  0E08               	movlw	8
  5427   001886  6E03               	movwf	i2___lbmod@counter^0,c
  5428   001888  6A04               	clrf	i2___lbmod@rem^0,c
  5429   00188A                     i2l2444:
  5430   00188A  90D8               	bcf	status,0,c
  5431   00188C  3402               	rlcf	i2___lbmod@dividend^0,w,c
  5432   00188E  3404               	rlcf	i2___lbmod@rem^0,w,c
  5433   001890  6E04               	movwf	i2___lbmod@rem^0,c
  5434   001892  90D8               	bcf	status,0,c
  5435   001894  3602               	rlcf	i2___lbmod@dividend^0,f,c
  5436   001896  5001               	movf	i2___lbmod@divisor^0,w,c
  5437   001898  5C04               	subwf	i2___lbmod@rem^0,w,c
  5438   00189A  A0D8               	btfss	status,0,c
  5439   00189C  D002               	goto	i2l2452
  5440   00189E  5001               	movf	i2___lbmod@divisor^0,w,c
  5441   0018A0  5E04               	subwf	i2___lbmod@rem^0,f,c
  5442   0018A2                     i2l2452:
  5443   0018A2  2E03               	decfsz	i2___lbmod@counter^0,f,c
  5444   0018A4  D7F2               	goto	i2l2444
  5445   0018A6  5004               	movf	i2___lbmod@rem^0,w,c
  5446   0018A8  0012               	return		;funcret
  5447   0018AA                     __end_ofi2___lbmod:
  5448                           	callstack 0
  5449                           
  5450 ;; *************** function i2___lbdiv *****************
  5451 ;; Defined at:
  5452 ;;		line 4 in file "C:\Program Files\Microchip\xc8\v2.50\pic\sources\c90\common\lbdiv.c"
  5453 ;; Parameters:    Size  Location     Type
  5454 ;;  dividend        1    wreg     unsigned char 
  5455 ;;  divisor         1    4[COMRAM] unsigned char 
  5456 ;; Auto vars:     Size  Location     Type
  5457 ;;  dividend        1    5[COMRAM] unsigned char 
  5458 ;;  quotient        1    7[COMRAM] unsigned char 
  5459 ;;  counter         1    6[COMRAM] unsigned char 
  5460 ;; Return value:  Size  Location     Type
  5461 ;;                  1    wreg      unsigned char 
  5462 ;; Registers used:
  5463 ;;		wreg, status,2, status,0
  5464 ;; Tracked objects:
  5465 ;;		On entry : 0/0
  5466 ;;		On exit  : 0/0
  5467 ;;		Unchanged: 0/0
  5468 ;; Data sizes:     COMRAM   BANK0   BANK1   BANK2   BANK3   BANK4   BANK5   BANK6   BANK7
  5469 ;;      Params:         1       0       0       0       0       0       0       0       0
  5470 ;;      Locals:         3       0       0       0       0       0       0       0       0
  5471 ;;      Temps:          0       0       0       0       0       0       0       0       0
  5472 ;;      Totals:         4       0       0       0       0       0       0       0       0
  5473 ;;Total ram usage:        4 bytes
  5474 ;; Hardware stack levels used: 1
  5475 ;; This function calls:
  5476 ;;		Nothing
  5477 ;; This function is called by:
  5478 ;;		i2_EscribeLCD_n8
  5479 ;; This function uses a non-reentrant model
  5480 ;;
  5481                           
  5482                           	psect	text33
  5483   00178A                     __ptext33:
  5484                           	callstack 0
  5485   00178A                     i2___lbdiv:
  5486                           	callstack 21
  5487                           
  5488                           ;incstack = 0
  5489                           ;i2___lbdiv@dividend stored from wreg
  5490   00178A  6E06               	movwf	i2___lbdiv@dividend^0,c
  5491   00178C  6A08               	clrf	i2___lbdiv@quotient^0,c
  5492   00178E  5005               	movf	i2___lbdiv@divisor^0,w,c
  5493   001790  B4D8               	btfsc	status,2,c
  5494   001792  D015               	goto	i2l2436
  5495   001794  0E01               	movlw	1
  5496   001796  6E07               	movwf	i2___lbdiv@counter^0,c
  5497   001798  D003               	goto	i2l2424
  5498   00179A                     i2l2420:
  5499   00179A  90D8               	bcf	status,0,c
  5500   00179C  3605               	rlcf	i2___lbdiv@divisor^0,f,c
  5501   00179E  2A07               	incf	i2___lbdiv@counter^0,f,c
  5502   0017A0                     i2l2424:
  5503   0017A0  AE05               	btfss	i2___lbdiv@divisor^0,7,c
  5504   0017A2  D7FB               	goto	i2l2420
  5505   0017A4                     i2u121_40:
  5506   0017A4  90D8               	bcf	status,0,c
  5507   0017A6  3608               	rlcf	i2___lbdiv@quotient^0,f,c
  5508   0017A8  5005               	movf	i2___lbdiv@divisor^0,w,c
  5509   0017AA  5C06               	subwf	i2___lbdiv@dividend^0,w,c
  5510   0017AC  A0D8               	btfss	status,0,c
  5511   0017AE  D003               	goto	i2l2432
  5512   0017B0  5005               	movf	i2___lbdiv@divisor^0,w,c
  5513   0017B2  5E06               	subwf	i2___lbdiv@dividend^0,f,c
  5514   0017B4  8008               	bsf	i2___lbdiv@quotient^0,0,c
  5515   0017B6                     i2l2432:
  5516   0017B6  90D8               	bcf	status,0,c
  5517   0017B8  3205               	rrcf	i2___lbdiv@divisor^0,f,c
  5518   0017BA  2E07               	decfsz	i2___lbdiv@counter^0,f,c
  5519   0017BC  D7F3               	goto	i2u121_40
  5520   0017BE                     i2l2436:
  5521   0017BE  5008               	movf	i2___lbdiv@quotient^0,w,c
  5522   0017C0  0012               	return		;funcret
  5523   0017C2                     __end_ofi2___lbdiv:
  5524                           	callstack 0
  5525                           
  5526 ;; *************** function _Borrar *****************
  5527 ;; Defined at:
  5528 ;;		line 651 in file "Lab5.c"
  5529 ;; Parameters:    Size  Location     Type
  5530 ;;		None
  5531 ;; Auto vars:     Size  Location     Type
  5532 ;;		None
  5533 ;; Return value:  Size  Location     Type
  5534 ;;                  1    wreg      void 
  5535 ;; Registers used:
  5536 ;;		wreg, status,2, status,0, cstack
  5537 ;; Tracked objects:
  5538 ;;		On entry : 0/0
  5539 ;;		On exit  : 0/0
  5540 ;;		Unchanged: 0/0
  5541 ;; Data sizes:     COMRAM   BANK0   BANK1   BANK2   BANK3   BANK4   BANK5   BANK6   BANK7
  5542 ;;      Params:         0       0       0       0       0       0       0       0       0
  5543 ;;      Locals:         0       0       0       0       0       0       0       0       0
  5544 ;;      Temps:          0       0       0       0       0       0       0       0       0
  5545 ;;      Totals:         0       0       0       0       0       0       0       0       0
  5546 ;;Total ram usage:        0 bytes
  5547 ;; Hardware stack levels used: 1
  5548 ;; Hardware stack levels required when called: 6
  5549 ;; This function calls:
  5550 ;;		i2_DireccionaLCD
  5551 ;;		i2_EscribeLCD_c
  5552 ;;		i2_MostrarCursor
  5553 ;; This function is called by:
  5554 ;;		_ISR
  5555 ;; This function uses a non-reentrant model
  5556 ;;
  5557                           
  5558                           	psect	text34
  5559   00182A                     __ptext34:
  5560                           	callstack 0
  5561   00182A                     _Borrar:
  5562                           	callstack 16
  5563                           
  5564                           ;Lab5.c: 653: if(modoEdicionObjetivo == 1){
  5565                           
  5566                           ;incstack = 0
  5567   00182A  0433               	decf	_modoEdicionObjetivo^0,w,c
  5568   00182C  A4D8               	btfss	status,2,c
  5569   00182E  0012               	return	
  5570                           
  5571                           ;Lab5.c: 655: MostrarCursor();
  5572   001830  ECEC  F00C         	call	i2_MostrarCursor	;wreg free
  5573                           
  5574                           ;Lab5.c: 656: piezasObjetivo = 0;
  5575   001834  0E00               	movlw	0
  5576   001836  6E26               	movwf	(_piezasObjetivo+1)^0,c
  5577   001838  0E00               	movlw	0
  5578   00183A  6E25               	movwf	_piezasObjetivo^0,c
  5579                           
  5580                           ;Lab5.c: 657: indiceDigitoObjetivo = 0;
  5581   00183C  6A34               	clrf	_indiceDigitoObjetivo^0,c
  5582                           
  5583                           ;Lab5.c: 658: DireccionaLCD(0xC7);
  5584   00183E  0EC7               	movlw	199
  5585   001840  EC8B  F00C         	call	i2_DireccionaLCD
  5586                           
  5587                           ;Lab5.c: 659: EscribeLCD_c(1);
  5588   001844  0E01               	movlw	1
  5589   001846  EC96  F00C         	call	i2_EscribeLCD_c
  5590                           
  5591                           ;Lab5.c: 660: EscribeLCD_c(1);
  5592   00184A  0E01               	movlw	1
  5593   00184C  EC96  F00C         	call	i2_EscribeLCD_c
  5594                           
  5595                           ;Lab5.c: 661: DireccionaLCD(0xC7);
  5596   001850  0EC7               	movlw	199
  5597   001852  EC8B  F00C         	call	i2_DireccionaLCD
  5598   001856  0012               	return		;funcret
  5599   001858                     __end_of_Borrar:
  5600                           	callstack 0
  5601                           
  5602 ;; *************** function i2_MostrarCursor *****************
  5603 ;; Defined at:
  5604 ;;		line 326 in file "LibLCDXC8_1.h"
  5605 ;; Parameters:    Size  Location     Type
  5606 ;;		None
  5607 ;; Auto vars:     Size  Location     Type
  5608 ;;		None
  5609 ;; Return value:  Size  Location     Type
  5610 ;;                  1    wreg      void 
  5611 ;; Registers used:
  5612 ;;		wreg, status,2, status,0, cstack
  5613 ;; Tracked objects:
  5614 ;;		On entry : 0/0
  5615 ;;		On exit  : 0/0
  5616 ;;		Unchanged: 0/0
  5617 ;; Data sizes:     COMRAM   BANK0   BANK1   BANK2   BANK3   BANK4   BANK5   BANK6   BANK7
  5618 ;;      Params:         0       0       0       0       0       0       0       0       0
  5619 ;;      Locals:         0       0       0       0       0       0       0       0       0
  5620 ;;      Temps:          0       0       0       0       0       0       0       0       0
  5621 ;;      Totals:         0       0       0       0       0       0       0       0       0
  5622 ;;Total ram usage:        0 bytes
  5623 ;; Hardware stack levels used: 1
  5624 ;; Hardware stack levels required when called: 5
  5625 ;; This function calls:
  5626 ;;		i2_ComandoLCD
  5627 ;; This function is called by:
  5628 ;;		_Borrar
  5629 ;; This function uses a non-reentrant model
  5630 ;;
  5631                           
  5632                           	psect	text35
  5633   0019D8                     __ptext35:
  5634                           	callstack 0
  5635   0019D8                     i2_MostrarCursor:
  5636                           	callstack 16
  5637                           
  5638                           ;LibLCDXC8_1.h: 327: ComandoLCD(0xF);
  5639                           
  5640                           ;incstack = 0
  5641   0019D8  0E0F               	movlw	15
  5642   0019DA  ECFC  F00B         	call	i2_ComandoLCD
  5643   0019DE  0012               	return		;funcret
  5644   0019E0                     __end_ofi2_MostrarCursor:
  5645                           	callstack 0
  5646                           
  5647 ;; *************** function i2_ComandoLCD *****************
  5648 ;; Defined at:
  5649 ;;		line 127 in file "LibLCDXC8_1.h"
  5650 ;; Parameters:    Size  Location     Type
  5651 ;;  a               1    wreg     unsigned char 
  5652 ;; Auto vars:     Size  Location     Type
  5653 ;;  a               1    5[COMRAM] unsigned char 
  5654 ;; Return value:  Size  Location     Type
  5655 ;;                  1    wreg      void 
  5656 ;; Registers used:
  5657 ;;		wreg, status,2, status,0, cstack
  5658 ;; Tracked objects:
  5659 ;;		On entry : 0/0
  5660 ;;		On exit  : 0/0
  5661 ;;		Unchanged: 0/0
  5662 ;; Data sizes:     COMRAM   BANK0   BANK1   BANK2   BANK3   BANK4   BANK5   BANK6   BANK7
  5663 ;;      Params:         0       0       0       0       0       0       0       0       0
  5664 ;;      Locals:         1       0       0       0       0       0       0       0       0
  5665 ;;      Temps:          0       0       0       0       0       0       0       0       0
  5666 ;;      Totals:         1       0       0       0       0       0       0       0       0
  5667 ;;Total ram usage:        1 bytes
  5668 ;; Hardware stack levels used: 1
  5669 ;; Hardware stack levels required when called: 4
  5670 ;; This function calls:
  5671 ;;		i2_BorraLCD
  5672 ;;		i2_CursorAInicio
  5673 ;;		i2_EnviaDato
  5674 ;;		i2_HabilitaLCD
  5675 ;;		i2_RetardoLCD
  5676 ;; This function is called by:
  5677 ;;		i2_OcultarCursor
  5678 ;;		i2_MostrarCursor
  5679 ;; This function uses a non-reentrant model
  5680 ;;
  5681                           
  5682                           	psect	text36
  5683   0017F8                     __ptext36:
  5684                           	callstack 0
  5685   0017F8                     i2_ComandoLCD:
  5686                           	callstack 17
  5687                           
  5688                           ;incstack = 0
  5689                           ;i2ComandoLCD@a stored from wreg
  5690   0017F8  6E06               	movwf	i2ComandoLCD@a^0,c
  5691                           
  5692                           ;LibLCDXC8_1.h: 129: LATA4=0;
  5693   0017FA  9889               	bcf	3977,4,c	;volatile
  5694                           
  5695                           ;LibLCDXC8_1.h: 130: if(a==1)
  5696   0017FC  0406               	decf	i2ComandoLCD@a^0,w,c
  5697   0017FE  A4D8               	btfss	status,2,c
  5698   001800  D003               	goto	i2l2404
  5699                           
  5700                           ;LibLCDXC8_1.h: 131: BorraLCD();
  5701   001802  ECB5  F00C         	call	i2_BorraLCD	;wreg free
  5702   001806  0012               	return	
  5703   001808                     i2l2404:
  5704                           
  5705                           ;LibLCDXC8_1.h: 132: else if((a&0b11111110)==2)
  5706   001808  5006               	movf	i2ComandoLCD@a^0,w,c
  5707   00180A  0BFE               	andlw	254
  5708   00180C  0A02               	xorlw	2
  5709   00180E  A4D8               	btfss	status,2,c
  5710   001810  D003               	goto	i2l2408
  5711                           
  5712                           ;LibLCDXC8_1.h: 133: CursorAInicio();
  5713   001812  ECF0  F00C         	call	i2_CursorAInicio	;wreg free
  5714   001816  0012               	return	
  5715   001818                     i2l2408:
  5716                           
  5717                           ;LibLCDXC8_1.h: 134: else{;LibLCDXC8_1.h: 135: EnviaDato(a);
  5718   001818  5006               	movf	i2ComandoLCD@a^0,w,c
  5719   00181A  ECEA  F00A         	call	i2_EnviaDato
  5720                           
  5721                           ;LibLCDXC8_1.h: 136: HabilitaLCD();
  5722   00181E  ECCF  F00C         	call	i2_HabilitaLCD	;wreg free
  5723                           
  5724                           ;LibLCDXC8_1.h: 137: RetardoLCD(4);
  5725   001822  0E04               	movlw	4
  5726   001824  EC70  F00A         	call	i2_RetardoLCD
  5727   001828  0012               	return		;funcret
  5728   00182A                     __end_ofi2_ComandoLCD:
  5729                           	callstack 0
  5730                           
  5731 ;; *************** function i2_CursorAInicio *****************
  5732 ;; Defined at:
  5733 ;;		line 121 in file "LibLCDXC8_1.h"
  5734 ;; Parameters:    Size  Location     Type
  5735 ;;		None
  5736 ;; Auto vars:     Size  Location     Type
  5737 ;;		None
  5738 ;; Return value:  Size  Location     Type
  5739 ;;                  1    wreg      void 
  5740 ;; Registers used:
  5741 ;;		wreg, status,2, status,0, cstack
  5742 ;; Tracked objects:
  5743 ;;		On entry : 0/0
  5744 ;;		On exit  : 0/0
  5745 ;;		Unchanged: 0/0
  5746 ;; Data sizes:     COMRAM   BANK0   BANK1   BANK2   BANK3   BANK4   BANK5   BANK6   BANK7
  5747 ;;      Params:         0       0       0       0       0       0       0       0       0
  5748 ;;      Locals:         0       0       0       0       0       0       0       0       0
  5749 ;;      Temps:          0       0       0       0       0       0       0       0       0
  5750 ;;      Totals:         0       0       0       0       0       0       0       0       0
  5751 ;;Total ram usage:        0 bytes
  5752 ;; Hardware stack levels used: 1
  5753 ;; Hardware stack levels required when called: 3
  5754 ;; This function calls:
  5755 ;;		i2_DireccionaLCD
  5756 ;; This function is called by:
  5757 ;;		i2_ComandoLCD
  5758 ;; This function uses a non-reentrant model
  5759 ;;
  5760                           
  5761                           	psect	text37
  5762   0019E0                     __ptext37:
  5763                           	callstack 0
  5764   0019E0                     i2_CursorAInicio:
  5765                           	callstack 17
  5766                           
  5767                           ;LibLCDXC8_1.h: 124: DireccionaLCD(0x80);
  5768                           
  5769                           ;incstack = 0
  5770   0019E0  0E80               	movlw	128
  5771   0019E2  EC8B  F00C         	call	i2_DireccionaLCD
  5772   0019E6  0012               	return		;funcret
  5773   0019E8                     __end_ofi2_CursorAInicio:
  5774                           	callstack 0
  5775                           
  5776 ;; *************** function i2_DireccionaLCD *****************
  5777 ;; Defined at:
  5778 ;;		line 245 in file "LibLCDXC8_1.h"
  5779 ;; Parameters:    Size  Location     Type
  5780 ;;  a               1    wreg     unsigned char 
  5781 ;; Auto vars:     Size  Location     Type
  5782 ;;  a               1    4[COMRAM] unsigned char 
  5783 ;; Return value:  Size  Location     Type
  5784 ;;                  1    wreg      void 
  5785 ;; Registers used:
  5786 ;;		wreg, status,2, status,0, cstack
  5787 ;; Tracked objects:
  5788 ;;		On entry : 0/0
  5789 ;;		On exit  : 0/0
  5790 ;;		Unchanged: 0/0
  5791 ;; Data sizes:     COMRAM   BANK0   BANK1   BANK2   BANK3   BANK4   BANK5   BANK6   BANK7
  5792 ;;      Params:         0       0       0       0       0       0       0       0       0
  5793 ;;      Locals:         1       0       0       0       0       0       0       0       0
  5794 ;;      Temps:          0       0       0       0       0       0       0       0       0
  5795 ;;      Totals:         1       0       0       0       0       0       0       0       0
  5796 ;;Total ram usage:        1 bytes
  5797 ;; Hardware stack levels used: 1
  5798 ;; Hardware stack levels required when called: 2
  5799 ;; This function calls:
  5800 ;;		i2_EnviaDato
  5801 ;;		i2_HabilitaLCD
  5802 ;;		i2_RetardoLCD
  5803 ;; This function is called by:
  5804 ;;		_ISR
  5805 ;;		_Borrar
  5806 ;;		i2_CursorAInicio
  5807 ;; This function uses a non-reentrant model
  5808 ;;
  5809                           
  5810                           	psect	text38
  5811   001916                     __ptext38:
  5812                           	callstack 0
  5813   001916                     i2_DireccionaLCD:
  5814                           	callstack 17
  5815                           
  5816                           ;incstack = 0
  5817                           ;i2DireccionaLCD@a stored from wreg
  5818   001916  6E05               	movwf	i2DireccionaLCD@a^0,c
  5819                           
  5820                           ;LibLCDXC8_1.h: 248: LATA4=0;
  5821   001918  9889               	bcf	3977,4,c	;volatile
  5822                           
  5823                           ;LibLCDXC8_1.h: 249: EnviaDato(a);
  5824   00191A  5005               	movf	i2DireccionaLCD@a^0,w,c
  5825   00191C  ECEA  F00A         	call	i2_EnviaDato
  5826                           
  5827                           ;LibLCDXC8_1.h: 250: HabilitaLCD();
  5828   001920  ECCF  F00C         	call	i2_HabilitaLCD	;wreg free
  5829                           
  5830                           ;LibLCDXC8_1.h: 251: RetardoLCD(4);
  5831   001924  0E04               	movlw	4
  5832   001926  EC70  F00A         	call	i2_RetardoLCD
  5833   00192A  0012               	return		;funcret
  5834   00192C                     __end_ofi2_DireccionaLCD:
  5835                           	callstack 0
  5836                           
  5837 ;; *************** function i2_BorraLCD *****************
  5838 ;; Defined at:
  5839 ;;		line 114 in file "LibLCDXC8_1.h"
  5840 ;; Parameters:    Size  Location     Type
  5841 ;;		None
  5842 ;; Auto vars:     Size  Location     Type
  5843 ;;		None
  5844 ;; Return value:  Size  Location     Type
  5845 ;;                  1    wreg      void 
  5846 ;; Registers used:
  5847 ;;		wreg, status,2, status,0, cstack
  5848 ;; Tracked objects:
  5849 ;;		On entry : 0/0
  5850 ;;		On exit  : 0/0
  5851 ;;		Unchanged: 0/0
  5852 ;; Data sizes:     COMRAM   BANK0   BANK1   BANK2   BANK3   BANK4   BANK5   BANK6   BANK7
  5853 ;;      Params:         0       0       0       0       0       0       0       0       0
  5854 ;;      Locals:         0       0       0       0       0       0       0       0       0
  5855 ;;      Temps:          0       0       0       0       0       0       0       0       0
  5856 ;;      Totals:         0       0       0       0       0       0       0       0       0
  5857 ;;Total ram usage:        0 bytes
  5858 ;; Hardware stack levels used: 1
  5859 ;; Hardware stack levels required when called: 2
  5860 ;; This function calls:
  5861 ;;		i2_EnviaDato
  5862 ;;		i2_HabilitaLCD
  5863 ;;		i2_RetardoLCD
  5864 ;; This function is called by:
  5865 ;;		_ISR
  5866 ;;		i2_ComandoLCD
  5867 ;; This function uses a non-reentrant model
  5868 ;;
  5869                           
  5870                           	psect	text39
  5871   00196A                     __ptext39:
  5872                           	callstack 0
  5873   00196A                     i2_BorraLCD:
  5874                           	callstack 18
  5875                           
  5876                           ;LibLCDXC8_1.h: 116: LATA4=0;
  5877                           
  5878                           ;incstack = 0
  5879   00196A  9889               	bcf	3977,4,c	;volatile
  5880                           
  5881                           ;LibLCDXC8_1.h: 117: EnviaDato(0x01);
  5882   00196C  0E01               	movlw	1
  5883   00196E  ECEA  F00A         	call	i2_EnviaDato
  5884                           
  5885                           ;LibLCDXC8_1.h: 118: HabilitaLCD();
  5886   001972  ECCF  F00C         	call	i2_HabilitaLCD	;wreg free
  5887                           
  5888                           ;LibLCDXC8_1.h: 119: RetardoLCD(2);
  5889   001976  0E02               	movlw	2
  5890   001978  EC70  F00A         	call	i2_RetardoLCD
  5891   00197C  0012               	return		;funcret
  5892   00197E                     __end_ofi2_BorraLCD:
  5893                           	callstack 0
  5894                           
  5895 ;; *************** function i2_EscribeLCD_c *****************
  5896 ;; Defined at:
  5897 ;;		line 140 in file "LibLCDXC8_1.h"
  5898 ;; Parameters:    Size  Location     Type
  5899 ;;  a               1    wreg     unsigned char 
  5900 ;; Auto vars:     Size  Location     Type
  5901 ;;  a               1    4[COMRAM] unsigned char 
  5902 ;; Return value:  Size  Location     Type
  5903 ;;                  1    wreg      void 
  5904 ;; Registers used:
  5905 ;;		wreg, status,2, status,0, cstack
  5906 ;; Tracked objects:
  5907 ;;		On entry : 0/0
  5908 ;;		On exit  : 0/0
  5909 ;;		Unchanged: 0/0
  5910 ;; Data sizes:     COMRAM   BANK0   BANK1   BANK2   BANK3   BANK4   BANK5   BANK6   BANK7
  5911 ;;      Params:         0       0       0       0       0       0       0       0       0
  5912 ;;      Locals:         1       0       0       0       0       0       0       0       0
  5913 ;;      Temps:          0       0       0       0       0       0       0       0       0
  5914 ;;      Totals:         1       0       0       0       0       0       0       0       0
  5915 ;;Total ram usage:        1 bytes
  5916 ;; Hardware stack levels used: 1
  5917 ;; Hardware stack levels required when called: 2
  5918 ;; This function calls:
  5919 ;;		i2_EnviaDato
  5920 ;;		i2_HabilitaLCD
  5921 ;;		i2_RetardoLCD
  5922 ;; This function is called by:
  5923 ;;		_Borrar
  5924 ;;		i2_MensajeLCD_Var
  5925 ;; This function uses a non-reentrant model
  5926 ;;
  5927                           
  5928                           	psect	text40
  5929   00192C                     __ptext40:
  5930                           	callstack 0
  5931   00192C                     i2_EscribeLCD_c:
  5932                           	callstack 19
  5933                           
  5934                           ;incstack = 0
  5935                           ;i2EscribeLCD_c@a stored from wreg
  5936   00192C  6E05               	movwf	i2EscribeLCD_c@a^0,c
  5937                           
  5938                           ;LibLCDXC8_1.h: 144: LATA4=1;
  5939   00192E  8889               	bsf	3977,4,c	;volatile
  5940                           
  5941                           ;LibLCDXC8_1.h: 145: EnviaDato(a);
  5942   001930  5005               	movf	i2EscribeLCD_c@a^0,w,c
  5943   001932  ECEA  F00A         	call	i2_EnviaDato
  5944                           
  5945                           ;LibLCDXC8_1.h: 146: HabilitaLCD();
  5946   001936  ECCF  F00C         	call	i2_HabilitaLCD	;wreg free
  5947                           
  5948                           ;LibLCDXC8_1.h: 147: RetardoLCD(4);
  5949   00193A  0E04               	movlw	4
  5950   00193C  EC70  F00A         	call	i2_RetardoLCD
  5951   001940  0012               	return		;funcret
  5952   001942                     __end_ofi2_EscribeLCD_c:
  5953                           	callstack 0
  5954                           
  5955 ;; *************** function i2_EnviaDato *****************
  5956 ;; Defined at:
  5957 ;;		line 61 in file "LibLCDXC8_1.h"
  5958 ;; Parameters:    Size  Location     Type
  5959 ;;  a               1    wreg     unsigned char 
  5960 ;; Auto vars:     Size  Location     Type
  5961 ;;  a               1    3[COMRAM] unsigned char 
  5962 ;; Return value:  Size  Location     Type
  5963 ;;                  1    wreg      void 
  5964 ;; Registers used:
  5965 ;;		wreg, status,2, status,0, cstack
  5966 ;; Tracked objects:
  5967 ;;		On entry : 0/0
  5968 ;;		On exit  : 0/0
  5969 ;;		Unchanged: 0/0
  5970 ;; Data sizes:     COMRAM   BANK0   BANK1   BANK2   BANK3   BANK4   BANK5   BANK6   BANK7
  5971 ;;      Params:         0       0       0       0       0       0       0       0       0
  5972 ;;      Locals:         1       0       0       0       0       0       0       0       0
  5973 ;;      Temps:          1       0       0       0       0       0       0       0       0
  5974 ;;      Totals:         2       0       0       0       0       0       0       0       0
  5975 ;;Total ram usage:        2 bytes
  5976 ;; Hardware stack levels used: 1
  5977 ;; Hardware stack levels required when called: 1
  5978 ;; This function calls:
  5979 ;;		i2_HabilitaLCD
  5980 ;;		i2_RetardoLCD
  5981 ;; This function is called by:
  5982 ;;		i2_BorraLCD
  5983 ;;		i2_ComandoLCD
  5984 ;;		i2_EscribeLCD_c
  5985 ;;		i2_EscribeLCD_n8
  5986 ;;		i2_DireccionaLCD
  5987 ;; This function uses a non-reentrant model
  5988 ;;
  5989                           
  5990                           	psect	text41
  5991   0015D4                     __ptext41:
  5992                           	callstack 0
  5993   0015D4                     i2_EnviaDato:
  5994                           	callstack 19
  5995                           
  5996                           ;incstack = 0
  5997                           ;i2EnviaDato@a stored from wreg
  5998   0015D4  6E04               	movwf	i2EnviaDato@a^0,c
  5999                           
  6000                           ;LibLCDXC8_1.h: 62: if(interfaz==4){
  6001   0015D6  0E04               	movlw	4
  6002   0015D8  1835               	xorwf	_interfaz^0,w,c
  6003   0015DA  A4D8               	btfss	status,2,c
  6004   0015DC  D017               	goto	i2l2376
  6005                           
  6006                           ;LibLCDXC8_1.h: 63: LATD=(LATD & 0b00001111) | (a & 0b11110000);
  6007   0015DE  C004  F003         	movff	i2EnviaDato@a,??i2_EnviaDato
  6008   0015E2  0EF0               	movlw	240
  6009   0015E4  1603               	andwf	??i2_EnviaDato^0,f,c
  6010   0015E6  508C               	movf	140,w,c	;volatile
  6011   0015E8  0B0F               	andlw	15
  6012   0015EA  1003               	iorwf	??i2_EnviaDato^0,w,c
  6013   0015EC  6E8C               	movwf	140,c	;volatile
  6014                           
  6015                           ;LibLCDXC8_1.h: 64: HabilitaLCD();
  6016   0015EE  ECCF  F00C         	call	i2_HabilitaLCD	;wreg free
  6017                           
  6018                           ;LibLCDXC8_1.h: 65: RetardoLCD(1);
  6019   0015F2  0E01               	movlw	1
  6020   0015F4  EC70  F00A         	call	i2_RetardoLCD
  6021                           
  6022                           ;LibLCDXC8_1.h: 66: LATD=(LATD & 0b00001111) | (a<<4);
  6023   0015F8  C004  F003         	movff	i2EnviaDato@a,??i2_EnviaDato
  6024   0015FC  3A03               	swapf	??i2_EnviaDato^0,f,c
  6025   0015FE  0EF0               	movlw	240
  6026   001600  1603               	andwf	??i2_EnviaDato^0,f,c
  6027   001602  508C               	movf	140,w,c	;volatile
  6028   001604  0B0F               	andlw	15
  6029   001606  1003               	iorwf	??i2_EnviaDato^0,w,c
  6030   001608  6E8C               	movwf	140,c	;volatile
  6031                           
  6032                           ;LibLCDXC8_1.h: 69: }else if(interfaz==8){
  6033   00160A  0012               	return	
  6034   00160C                     i2l2376:
  6035   00160C  0E08               	movlw	8
  6036   00160E  1835               	xorwf	_interfaz^0,w,c
  6037   001610  A4D8               	btfss	status,2,c
  6038   001612  0012               	return	
  6039                           
  6040                           ;LibLCDXC8_1.h: 70: LATD=a;
  6041   001614  C004  FF8C         	movff	i2EnviaDato@a,3980	;volatile
  6042   001618  0012               	return		;funcret
  6043   00161A                     __end_ofi2_EnviaDato:
  6044                           	callstack 0
  6045                           
  6046 ;; *************** function i2_RetardoLCD *****************
  6047 ;; Defined at:
  6048 ;;		line 290 in file "LibLCDXC8_1.h"
  6049 ;; Parameters:    Size  Location     Type
  6050 ;;  a               1    wreg     unsigned char 
  6051 ;; Auto vars:     Size  Location     Type
  6052 ;;  a               1    1[COMRAM] unsigned char 
  6053 ;; Return value:  Size  Location     Type
  6054 ;;                  1    wreg      void 
  6055 ;; Registers used:
  6056 ;;		wreg, status,2, status,0
  6057 ;; Tracked objects:
  6058 ;;		On entry : 0/0
  6059 ;;		On exit  : 0/0
  6060 ;;		Unchanged: 0/0
  6061 ;; Data sizes:     COMRAM   BANK0   BANK1   BANK2   BANK3   BANK4   BANK5   BANK6   BANK7
  6062 ;;      Params:         0       0       0       0       0       0       0       0       0
  6063 ;;      Locals:         1       0       0       0       0       0       0       0       0
  6064 ;;      Temps:          1       0       0       0       0       0       0       0       0
  6065 ;;      Totals:         2       0       0       0       0       0       0       0       0
  6066 ;;Total ram usage:        2 bytes
  6067 ;; Hardware stack levels used: 1
  6068 ;; This function calls:
  6069 ;;		Nothing
  6070 ;; This function is called by:
  6071 ;;		i2_EnviaDato
  6072 ;;		i2_BorraLCD
  6073 ;;		i2_ComandoLCD
  6074 ;;		i2_EscribeLCD_c
  6075 ;;		i2_EscribeLCD_n8
  6076 ;;		i2_DireccionaLCD
  6077 ;; This function uses a non-reentrant model
  6078 ;;
  6079                           
  6080                           	psect	text42
  6081   0014E0                     __ptext42:
  6082                           	callstack 0
  6083   0014E0                     i2_RetardoLCD:
  6084                           	callstack 20
  6085                           
  6086                           ;incstack = 0
  6087                           ;i2RetardoLCD@a stored from wreg
  6088   0014E0  6E02               	movwf	i2RetardoLCD@a^0,c
  6089                           
  6090                           ;LibLCDXC8_1.h: 291: switch(a){
  6091   0014E2  D01B               	goto	i2l2364
  6092   0014E4                     i2l2354:
  6093   0014E4  0E05               	movlw	5
  6094   0014E6  6E01               	movwf	??i2_RetardoLCD^0,c
  6095   0014E8  0EDE               	movlw	222
  6096   0014EA                     i2u272_47:
  6097   0014EA  2EE8               	decfsz	wreg,f,c
  6098   0014EC  D7FE               	bra	i2u272_47
  6099   0014EE  2E01               	decfsz	??i2_RetardoLCD^0,f,c
  6100   0014F0  D7FC               	bra	i2u272_47
  6101                           
  6102                           ;LibLCDXC8_1.h: 294: break;
  6103   0014F2  0012               	return	
  6104   0014F4                     i2l2356:
  6105   0014F4  0E53               	movlw	83
  6106   0014F6                     i2u273_47:
  6107   0014F6  2EE8               	decfsz	wreg,f,c
  6108   0014F8  D7FE               	bra	i2u273_47
  6109   0014FA  0000               	nop	
  6110                           
  6111                           ;LibLCDXC8_1.h: 296: _delay((unsigned long)((640)*(1000000/4000000.0)));
  6112   0014FC  0E35               	movlw	53
  6113   0014FE                     i2u274_47:
  6114   0014FE  2EE8               	decfsz	wreg,f,c
  6115   001500  D7FE               	bra	i2u274_47
  6116   001502  0000               	nop	
  6117                           
  6118                           ;LibLCDXC8_1.h: 298: break;
  6119   001504  0012               	return	
  6120   001506                     i2l2358:
  6121   001506  0E08               	movlw	8
  6122   001508                     i2u275_47:
  6123   001508  2EE8               	decfsz	wreg,f,c
  6124   00150A  D7FE               	bra	i2u275_47
  6125   00150C  0000               	nop	
  6126                           
  6127                           ;LibLCDXC8_1.h: 301: break;
  6128   00150E  0012               	return	
  6129   001510                     i2l2360:
  6130   001510  0E03               	movlw	3
  6131   001512                     i2u276_47:
  6132   001512  2EE8               	decfsz	wreg,f,c
  6133   001514  D7FE               	bra	i2u276_47
  6134   001516  0000               	nop	
  6135                           
  6136                           ;LibLCDXC8_1.h: 304: break;
  6137   001518  0012               	return	
  6138   00151A                     i2l2364:
  6139   00151A  5002               	movf	i2RetardoLCD@a^0,w,c
  6140                           
  6141                           ; Switch size 1, requested type "simple"
  6142                           ; Number of cases is 4, Range of values is 1 to 4
  6143                           ; switch strategies available:
  6144                           ; Name         Instructions Cycles
  6145                           ; simple_byte           13     7 (average)
  6146                           ;	Chosen strategy is simple_byte
  6147   00151C  0A01               	xorlw	1	; case 1
  6148   00151E  B4D8               	btfsc	status,2,c
  6149   001520  D7E1               	goto	i2l2354
  6150   001522  0A03               	xorlw	3	; case 2
  6151   001524  B4D8               	btfsc	status,2,c
  6152   001526  D7E6               	goto	i2l2356
  6153   001528  0A01               	xorlw	1	; case 3
  6154   00152A  B4D8               	btfsc	status,2,c
  6155   00152C  D7EC               	goto	i2l2358
  6156   00152E  0A07               	xorlw	7	; case 4
  6157   001530  A4D8               	btfss	status,2,c
  6158   001532  0012               	return	
  6159   001534  D7ED               	goto	i2l2360
  6160   001536                     __end_ofi2_RetardoLCD:
  6161                           	callstack 0
  6162                           
  6163 ;; *************** function i2_HabilitaLCD *****************
  6164 ;; Defined at:
  6165 ;;		line 107 in file "LibLCDXC8_1.h"
  6166 ;; Parameters:    Size  Location     Type
  6167 ;;		None
  6168 ;; Auto vars:     Size  Location     Type
  6169 ;;		None
  6170 ;; Return value:  Size  Location     Type
  6171 ;;                  1    wreg      void 
  6172 ;; Registers used:
  6173 ;;		wreg
  6174 ;; Tracked objects:
  6175 ;;		On entry : 0/0
  6176 ;;		On exit  : 0/0
  6177 ;;		Unchanged: 0/0
  6178 ;; Data sizes:     COMRAM   BANK0   BANK1   BANK2   BANK3   BANK4   BANK5   BANK6   BANK7
  6179 ;;      Params:         0       0       0       0       0       0       0       0       0
  6180 ;;      Locals:         0       0       0       0       0       0       0       0       0
  6181 ;;      Temps:          0       0       0       0       0       0       0       0       0
  6182 ;;      Totals:         0       0       0       0       0       0       0       0       0
  6183 ;;Total ram usage:        0 bytes
  6184 ;; Hardware stack levels used: 1
  6185 ;; This function calls:
  6186 ;;		Nothing
  6187 ;; This function is called by:
  6188 ;;		i2_EnviaDato
  6189 ;;		i2_BorraLCD
  6190 ;;		i2_ComandoLCD
  6191 ;;		i2_EscribeLCD_c
  6192 ;;		i2_EscribeLCD_n8
  6193 ;;		i2_DireccionaLCD
  6194 ;; This function uses a non-reentrant model
  6195 ;;
  6196                           
  6197                           	psect	text43
  6198   00199E                     __ptext43:
  6199                           	callstack 0
  6200   00199E                     i2_HabilitaLCD:
  6201                           	callstack 20
  6202                           
  6203                           ;LibLCDXC8_1.h: 109: LATA5=1;
  6204                           
  6205                           ;incstack = 0
  6206   00199E  8A89               	bsf	3977,5,c	;volatile
  6207                           
  6208                           ;LibLCDXC8_1.h: 110: _delay((unsigned long)((40)*(1000000/4000000.0)));
  6209   0019A0  0E03               	movlw	3
  6210   0019A2                     i2u277_47:
  6211   0019A2  2EE8               	decfsz	wreg,f,c
  6212   0019A4  D7FE               	bra	i2u277_47
  6213   0019A6  0000               	nop	
  6214                           
  6215                           ;LibLCDXC8_1.h: 112: LATA5=0;
  6216   0019A8  9A89               	bcf	3977,5,c	;volatile
  6217   0019AA  0012               	return		;funcret
  6218   0019AC                     __end_ofi2_HabilitaLCD:
  6219                           	callstack 0
  6220                           
  6221                           	psect	rparam
  6222   000001                     ___rparam_used  equ	1
  6223   000000                     ___param_bank   equ	0
  6224   000000                     __Lparam        equ	__Lrparam
  6225   000000                     __Hparam        equ	__Hrparam
  6226                           
  6227                           	psect	temp
  6228   000047                     btemp:
  6229                           	callstack 0
  6230   000047                     	ds	1
  6231   000047                     int$flags       set	btemp
  6232   000048                     wtemp8          set	btemp+1
  6233   000048                     ttemp5          set	btemp+1
  6234   00004B                     ttemp6          set	btemp+4
  6235   00004F                     ttemp7          set	btemp+8
  6236                           
  6237                           	psect	idloc
  6238                           
  6239                           ;Config register IDLOC0 @ 0x200000
  6240                           ;	unspecified, using default values
  6241   200000                     	org	2097152
  6242   200000  FF                 	db	255
  6243                           
  6244                           ;Config register IDLOC1 @ 0x200001
  6245                           ;	unspecified, using default values
  6246   200001                     	org	2097153
  6247   200001  FF                 	db	255
  6248                           
  6249                           ;Config register IDLOC2 @ 0x200002
  6250                           ;	unspecified, using default values
  6251   200002                     	org	2097154
  6252   200002  FF                 	db	255
  6253                           
  6254                           ;Config register IDLOC3 @ 0x200003
  6255                           ;	unspecified, using default values
  6256   200003                     	org	2097155
  6257   200003  FF                 	db	255
  6258                           
  6259                           ;Config register IDLOC4 @ 0x200004
  6260                           ;	unspecified, using default values
  6261   200004                     	org	2097156
  6262   200004  FF                 	db	255
  6263                           
  6264                           ;Config register IDLOC5 @ 0x200005
  6265                           ;	unspecified, using default values
  6266   200005                     	org	2097157
  6267   200005  FF                 	db	255
  6268                           
  6269                           ;Config register IDLOC6 @ 0x200006
  6270                           ;	unspecified, using default values
  6271   200006                     	org	2097158
  6272   200006  FF                 	db	255
  6273                           
  6274                           ;Config register IDLOC7 @ 0x200007
  6275                           ;	unspecified, using default values
  6276   200007                     	org	2097159
  6277   200007  FF                 	db	255
  6278                           
  6279                           	psect	config
  6280                           
  6281                           ;Config register CONFIG1L @ 0x300000
  6282                           ;	unspecified, using default values
  6283                           ;	PLL Prescaler Selection bits
  6284                           ;	PLLDIV = 0x0, unprogrammed default
  6285                           ;	System Clock Postscaler Selection bits
  6286                           ;	CPUDIV = 0x0, unprogrammed default
  6287                           ;	USB Clock Selection bit (used in Full-Speed USB mode only; UCFG:FSEN = 1)
  6288                           ;	USBDIV = 0x0, unprogrammed default
  6289   300000                     	org	3145728
  6290   300000  00                 	db	0
  6291                           
  6292                           ;Config register CONFIG1H @ 0x300001
  6293                           ;	Oscillator Selection bits
  6294                           ;	FOSC = INTOSC_EC, Internal oscillator, CLKO function on RA6, EC used by USB (INTCKO)
  6295                           ;	Fail-Safe Clock Monitor Enable bit
  6296                           ;	FCMEN = 0x0, unprogrammed default
  6297                           ;	Internal/External Oscillator Switchover bit
  6298                           ;	IESO = 0x0, unprogrammed default
  6299   300001                     	org	3145729
  6300   300001  09                 	db	9
  6301                           
  6302                           ;Config register CONFIG2L @ 0x300002
  6303                           ;	unspecified, using default values
  6304                           ;	Power-up Timer Enable bit
  6305                           ;	PWRT = 0x1, unprogrammed default
  6306                           ;	Brown-out Reset Enable bits
  6307                           ;	BOR = 0x3, unprogrammed default
  6308                           ;	Brown-out Reset Voltage bits
  6309                           ;	BORV = 0x3, unprogrammed default
  6310                           ;	USB Voltage Regulator Enable bit
  6311                           ;	VREGEN = 0x0, unprogrammed default
  6312   300002                     	org	3145730
  6313   300002  1F                 	db	31
  6314                           
  6315                           ;Config register CONFIG2H @ 0x300003
  6316                           ;	Watchdog Timer Enable bit
  6317                           ;	WDT = OFF, WDT disabled (control is placed on the SWDTEN bit)
  6318                           ;	Watchdog Timer Postscale Select bits
  6319                           ;	WDTPS = 0xF, unprogrammed default
  6320   300003                     	org	3145731
  6321   300003  1E                 	db	30
  6322                           
  6323                           ; Padding undefined space
  6324   300004                     	org	3145732
  6325   300004  FF                 	db	255
  6326                           
  6327                           ;Config register CONFIG3H @ 0x300005
  6328                           ;	unspecified, using default values
  6329                           ;	CCP2 MUX bit
  6330                           ;	CCP2MX = 0x1, unprogrammed default
  6331                           ;	PORTB A/D Enable bit
  6332                           ;	PBADEN = 0x1, unprogrammed default
  6333                           ;	Low-Power Timer 1 Oscillator Enable bit
  6334                           ;	LPT1OSC = 0x0, unprogrammed default
  6335                           ;	MCLR Pin Enable bit
  6336                           ;	MCLRE = 0x1, unprogrammed default
  6337   300005                     	org	3145733
  6338   300005  83                 	db	131
  6339                           
  6340                           ;Config register CONFIG4L @ 0x300006
  6341                           ;	Stack Full/Underflow Reset Enable bit
  6342                           ;	STVREN = 0x1, unprogrammed default
  6343                           ;	Single-Supply ICSP Enable bit
  6344                           ;	LVP = OFF, Single-Supply ICSP disabled
  6345                           ;	Dedicated In-Circuit Debug/Programming Port (ICPORT) Enable bit
  6346                           ;	ICPRT = 0x0, unprogrammed default
  6347                           ;	Extended Instruction Set Enable bit
  6348                           ;	XINST = 0x0, unprogrammed default
  6349                           ;	Background Debugger Enable bit
  6350                           ;	DEBUG = 0x1, unprogrammed default
  6351   300006                     	org	3145734
  6352   300006  81                 	db	129
  6353                           
  6354                           ; Padding undefined space
  6355   300007                     	org	3145735
  6356   300007  FF                 	db	255
  6357                           
  6358                           ;Config register CONFIG5L @ 0x300008
  6359                           ;	unspecified, using default values
  6360                           ;	Code Protection bit
  6361                           ;	CP0 = 0x1, unprogrammed default
  6362                           ;	Code Protection bit
  6363                           ;	CP1 = 0x1, unprogrammed default
  6364                           ;	Code Protection bit
  6365                           ;	CP2 = 0x1, unprogrammed default
  6366                           ;	Code Protection bit
  6367                           ;	CP3 = 0x1, unprogrammed default
  6368   300008                     	org	3145736
  6369   300008  0F                 	db	15
  6370                           
  6371                           ;Config register CONFIG5H @ 0x300009
  6372                           ;	unspecified, using default values
  6373                           ;	Boot Block Code Protection bit
  6374                           ;	CPB = 0x1, unprogrammed default
  6375                           ;	Data EEPROM Code Protection bit
  6376                           ;	CPD = 0x1, unprogrammed default
  6377   300009                     	org	3145737
  6378   300009  C0                 	db	192
  6379                           
  6380                           ;Config register CONFIG6L @ 0x30000A
  6381                           ;	unspecified, using default values
  6382                           ;	Write Protection bit
  6383                           ;	WRT0 = 0x1, unprogrammed default
  6384                           ;	Write Protection bit
  6385                           ;	WRT1 = 0x1, unprogrammed default
  6386                           ;	Write Protection bit
  6387                           ;	WRT2 = 0x1, unprogrammed default
  6388                           ;	Write Protection bit
  6389                           ;	WRT3 = 0x1, unprogrammed default
  6390   30000A                     	org	3145738
  6391   30000A  0F                 	db	15
  6392                           
  6393                           ;Config register CONFIG6H @ 0x30000B
  6394                           ;	unspecified, using default values
  6395                           ;	Configuration Register Write Protection bit
  6396                           ;	WRTC = 0x1, unprogrammed default
  6397                           ;	Boot Block Write Protection bit
  6398                           ;	WRTB = 0x1, unprogrammed default
  6399                           ;	Data EEPROM Write Protection bit
  6400                           ;	WRTD = 0x1, unprogrammed default
  6401   30000B                     	org	3145739
  6402   30000B  E0                 	db	224
  6403                           
  6404                           ;Config register CONFIG7L @ 0x30000C
  6405                           ;	unspecified, using default values
  6406                           ;	Table Read Protection bit
  6407                           ;	EBTR0 = 0x1, unprogrammed default
  6408                           ;	Table Read Protection bit
  6409                           ;	EBTR1 = 0x1, unprogrammed default
  6410                           ;	Table Read Protection bit
  6411                           ;	EBTR2 = 0x1, unprogrammed default
  6412                           ;	Table Read Protection bit
  6413                           ;	EBTR3 = 0x1, unprogrammed default
  6414   30000C                     	org	3145740
  6415   30000C  0F                 	db	15
  6416                           
  6417                           ;Config register CONFIG7H @ 0x30000D
  6418                           ;	unspecified, using default values
  6419                           ;	Boot Block Table Read Protection bit
  6420                           ;	EBTRB = 0x1, unprogrammed default
  6421   30000D                     	org	3145741
  6422   30000D  40                 	db	64
  6423                           tosu	equ	0xFFF
  6424                           tosh	equ	0xFFE
  6425                           tosl	equ	0xFFD
  6426                           stkptr	equ	0xFFC
  6427                           pclatu	equ	0xFFB
  6428                           pclath	equ	0xFFA
  6429                           pcl	equ	0xFF9
  6430                           tblptru	equ	0xFF8
  6431                           tblptrh	equ	0xFF7
  6432                           tblptrl	equ	0xFF6
  6433                           tablat	equ	0xFF5
  6434                           prodh	equ	0xFF4
  6435                           prodl	equ	0xFF3
  6436                           indf0	equ	0xFEF
  6437                           postinc0	equ	0xFEE
  6438                           postdec0	equ	0xFED
  6439                           preinc0	equ	0xFEC
  6440                           plusw0	equ	0xFEB
  6441                           fsr0h	equ	0xFEA
  6442                           fsr0l	equ	0xFE9
  6443                           wreg	equ	0xFE8
  6444                           indf1	equ	0xFE7
  6445                           postinc1	equ	0xFE6
  6446                           postdec1	equ	0xFE5
  6447                           preinc1	equ	0xFE4
  6448                           plusw1	equ	0xFE3
  6449                           fsr1h	equ	0xFE2
  6450                           fsr1l	equ	0xFE1
  6451                           bsr	equ	0xFE0
  6452                           indf2	equ	0xFDF
  6453                           postinc2	equ	0xFDE
  6454                           postdec2	equ	0xFDD
  6455                           preinc2	equ	0xFDC
  6456                           plusw2	equ	0xFDB
  6457                           fsr2h	equ	0xFDA
  6458                           fsr2l	equ	0xFD9
  6459                           status	equ	0xFD8

Data Sizes:
    Strings     210
    Constant    10
    Data        17
    BSS         18
    Persistent  1
    Stack       0

Auto Spaces:
    Space          Size  Autos    Used
    COMRAM           94     34      70
    BANK0           160     15      15
    BANK1           256      0       0
    BANK2           256      0       0
    BANK3           256      0       0
    BANK4           256      0       0
    BANK5           256      0       0
    BANK6           256      0       0
    BANK7           256      0       0

Pointer List with Targets:

    CrearCaracter@arreglo	PTR unsigned char  size(1) Largest target is 8
		 -> Estrella(COMRAM[8]), Marco(COMRAM[8]), 

    MensajeLCD_Var@a	PTR unsigned char  size(1) Largest target is 17
		 -> STR_1(CODE[13]), STR_10(CODE[14]), STR_12(CODE[13]), STR_13(CODE[14]), 
		 -> STR_14(CODE[13]), STR_15(CODE[12]), STR_16(CODE[17]), STR_17(CODE[6]), 
		 -> STR_18(CODE[10]), STR_2(CODE[13]), STR_3(CODE[13]), STR_4(CODE[13]), 
		 -> STR_5(CODE[12]), STR_6(CODE[11]), STR_7(CODE[16]), STR_8(CODE[15]), 
		 -> STR_9(CODE[13]), 

    printf@ap	PTR void [1] size(1) Largest target is 2
		 -> ?_printf(COMRAM[2]), 

    printf@f	PTR const unsigned char  size(1) Largest target is 19
		 -> STR_11(CODE[19]), 


Critical Paths under _main in COMRAM

    None.

Critical Paths under _ISR in COMRAM

    _ISR->_printf
    i2_MensajeLCD_Var->i2_EscribeLCD_c
    _printf->___lwmod
    ___lwmod->___lwdiv
    _ConfigPregunta->i2_EscribeLCD_n8
    i2_OcultarCursor->i2_ComandoLCD
    i2_EscribeLCD_n8->i2___lbdiv
    i2___lbdiv->i2___lbmod
    i2_MostrarCursor->i2_ComandoLCD
    i2_CursorAInicio->i2_DireccionaLCD
    i2_DireccionaLCD->i2_EnviaDato
    i2_BorraLCD->i2_EnviaDato
    i2_EscribeLCD_c->i2_EnviaDato
    i2_EnviaDato->i2_RetardoLCD

Critical Paths under _main in BANK0

    _main->_Bienvenida
    _main->_EscribeLCD_n8
    _PreguntaAlUsuario->_CrearCaracter
    _PreguntaAlUsuario->_MensajeLCD_Var
    _MostrarCursor->_ComandoLCD
    _EscribeLCD_n8->___lbdiv
    ___lbdiv->___lbmod
    _Bienvenida->_CrearCaracter
    _Bienvenida->_MensajeLCD_Var
    _OcultarCursor->_ComandoLCD
    _CursorAInicio->_DireccionaLCD
    _MensajeLCD_Var->_EscribeLCD_c
    _EscribeLCD_c->_EnviaDato
    _InicializaLCD->_EnviaDato
    _BorraLCD->_EnviaDato
    _DesplazaPantallaD->_EnviaDato
    _CrearCaracter->_DireccionaLCD
    _DireccionaLCD->_EnviaDato
    _EnviaDato->_RetardoLCD

Critical Paths under _ISR in BANK0

    None.

Critical Paths under _main in BANK1

    None.

Critical Paths under _ISR in BANK1

    None.

Critical Paths under _main in BANK2

    None.

Critical Paths under _ISR in BANK2

    None.

Critical Paths under _main in BANK3

    None.

Critical Paths under _ISR in BANK3

    None.

Critical Paths under _main in BANK4

    None.

Critical Paths under _ISR in BANK4

    None.

Critical Paths under _main in BANK5

    None.

Critical Paths under _ISR in BANK5

    None.

Critical Paths under _main in BANK6

    None.

Critical Paths under _ISR in BANK6

    None.

Critical Paths under _main in BANK7

    None.

Critical Paths under _ISR in BANK7

    None.

Call Graph Tables:

 ---------------------------------------------------------------------------------
 (Depth) Function   	        Calls       Base Space   Used Autos Params    Refs
 ---------------------------------------------------------------------------------
 (0) _main                                                 2     2      0    7173
                                             13 BANK0      2     2      0
                         _Bienvenida
                           _BorraLCD
                    _ConfigVariables
                      _DireccionaLCD
                      _EscribeLCD_n8
                     _MensajeLCD_Var
                      _OcultarCursor
                  _PreguntaAlUsuario
 ---------------------------------------------------------------------------------
 (1) _PreguntaAlUsuario                                    2     2      0    2430
                                              9 BANK0      2     2      0
                           _BorraLCD
                      _CrearCaracter
                      _DireccionaLCD
                       _EscribeLCD_c
                     _MensajeLCD_Var
                      _MostrarCursor
                      _OcultarCursor
 ---------------------------------------------------------------------------------
 (2) _MostrarCursor                                        0     0      0     551
                         _ComandoLCD
 ---------------------------------------------------------------------------------
 (1) _EscribeLCD_n8                                        5     4      1    1206
                                              8 BANK0      5     4      1
                          _EnviaDato
                        _HabilitaLCD
                         _RetardoLCD
                            ___lbdiv
                            ___lbmod
 ---------------------------------------------------------------------------------
 (2) ___lbmod                                              4     3      1     266
                                              0 BANK0      4     3      1
 ---------------------------------------------------------------------------------
 (2) ___lbdiv                                              4     3      1     269
                                              4 BANK0      4     3      1
                            ___lbmod (ARG)
 ---------------------------------------------------------------------------------
 (1) _ConfigVariables                                      0     0      0       0
 ---------------------------------------------------------------------------------
 (1) _Bienvenida                                           4     4      0    2324
                                              9 BANK0      4     4      0
                       _ConfiguraLCD
                      _CrearCaracter
                  _DesplazaPantallaD
                      _DireccionaLCD
                       _EscribeLCD_c
                      _InicializaLCD
                     _MensajeLCD_Var
                      _OcultarCursor
 ---------------------------------------------------------------------------------
 (2) _OcultarCursor                                        0     0      0     551
                         _ComandoLCD
 ---------------------------------------------------------------------------------
 (3) _ComandoLCD                                           1     1      0     551
                                              5 BANK0      1     1      0
                           _BorraLCD
                      _CursorAInicio
                          _EnviaDato
                        _HabilitaLCD
                         _RetardoLCD
 ---------------------------------------------------------------------------------
 (4) _CursorAInicio                                        0     0      0     174
                      _DireccionaLCD
 ---------------------------------------------------------------------------------
 (2) _MensajeLCD_Var                                       4     3      1     343
                                              5 BANK0      4     3      1
                       _EscribeLCD_c
 ---------------------------------------------------------------------------------
 (3) _EscribeLCD_c                                         1     1      0     174
                                              4 BANK0      1     1      0
                          _EnviaDato
                        _HabilitaLCD
                         _RetardoLCD
 ---------------------------------------------------------------------------------
 (2) _InicializaLCD                                        0     0      0     290
                           _BorraLCD
                          _EnviaDato
                        _HabilitaLCD
                         _RetardoLCD
 ---------------------------------------------------------------------------------
 (4) _BorraLCD                                             0     0      0     145
                          _EnviaDato
                        _HabilitaLCD
                         _RetardoLCD
 ---------------------------------------------------------------------------------
 (2) _DesplazaPantallaD                                    0     0      0     145
                          _EnviaDato
                        _HabilitaLCD
                         _RetardoLCD
 ---------------------------------------------------------------------------------
 (2) _CrearCaracter                                        4     2      2     492
                                              5 BANK0      4     2      2
                      _DireccionaLCD
                          _EnviaDato
                        _HabilitaLCD
                         _RetardoLCD
 ---------------------------------------------------------------------------------
 (5) _DireccionaLCD                                        1     1      0     174
                                              4 BANK0      1     1      0
                          _EnviaDato
                        _HabilitaLCD
                         _RetardoLCD
 ---------------------------------------------------------------------------------
 (4) _EnviaDato                                            2     2      0     116
                                              2 BANK0      2     2      0
                        _HabilitaLCD
                         _RetardoLCD
 ---------------------------------------------------------------------------------
 (4) _RetardoLCD                                           2     2      0      29
                                              0 BANK0      2     2      0
 ---------------------------------------------------------------------------------
 (4) _HabilitaLCD                                          0     0      0       0
 ---------------------------------------------------------------------------------
 (2) _ConfiguraLCD                                         1     1      0      87
                                              0 BANK0      1     1      0
 ---------------------------------------------------------------------------------
 Estimated maximum stack depth 5
 ---------------------------------------------------------------------------------
 (Depth) Function   	        Calls       Base Space   Used Autos Params    Refs
 ---------------------------------------------------------------------------------
 (8) _ISR                                                 12    12      0    5168
                                             22 COMRAM    12    12      0
                             _Borrar
                     _ConfigPregunta
                         _Conversion
                            ___lwdiv
                             _printf
                         i2_BorraLCD
                    i2_DireccionaLCD
                    i2_EscribeLCD_n8
                   i2_MensajeLCD_Var
                    i2_OcultarCursor
 ---------------------------------------------------------------------------------
 (9) i2_MensajeLCD_Var                                     4     3      1     268
                                              5 COMRAM     4     3      1
                     i2_EscribeLCD_c
 ---------------------------------------------------------------------------------
 (9) _printf                                              18    15      3     729
                                             12 COMRAM    10     7      3
                            ___lwdiv
                            ___lwmod
                              _putch
 ---------------------------------------------------------------------------------
 (10) _putch                                               1     1      0      15
                                              0 COMRAM     1     1      0
 ---------------------------------------------------------------------------------
 (10) ___lwmod                                             5     1      4     161
                                              7 COMRAM     5     1      4
                            ___lwdiv (ARG)
 ---------------------------------------------------------------------------------
 (10) ___lwdiv                                             7     3      4     166
                                              0 COMRAM     7     3      4
 ---------------------------------------------------------------------------------
 (9) _Conversion                                           3     1      2      29
                                              0 COMRAM     3     1      2
 ---------------------------------------------------------------------------------
 (9) _ConfigPregunta                                       2     2      0    1379
                                             13 COMRAM     2     2      0
                    i2_EscribeLCD_n8
                    i2_OcultarCursor
 ---------------------------------------------------------------------------------
 (9) i2_OcultarCursor                                      0     0      0     551
                       i2_ComandoLCD
 ---------------------------------------------------------------------------------
 (9) i2_EscribeLCD_n8                                      5     4      1     828
                                              8 COMRAM     5     4      1
                        i2_EnviaDato
                      i2_HabilitaLCD
                       i2_RetardoLCD
                          i2___lbdiv
                          i2___lbmod
 ---------------------------------------------------------------------------------
 (10) i2___lbmod                                           4     3      1     172
                                              0 COMRAM     4     3      1
 ---------------------------------------------------------------------------------
 (10) i2___lbdiv                                           4     3      1     173
                                              4 COMRAM     4     3      1
                          i2___lbmod (ARG)
 ---------------------------------------------------------------------------------
 (9) _Borrar                                               0     0      0     899
                    i2_DireccionaLCD
                     i2_EscribeLCD_c
                    i2_MostrarCursor
 ---------------------------------------------------------------------------------
 (10) i2_MostrarCursor                                     0     0      0     551
                       i2_ComandoLCD
 ---------------------------------------------------------------------------------
 (10) i2_ComandoLCD                                        1     1      0     551
                                              5 COMRAM     1     1      0
                         i2_BorraLCD
                    i2_CursorAInicio
                        i2_EnviaDato
                      i2_HabilitaLCD
                       i2_RetardoLCD
 ---------------------------------------------------------------------------------
 (11) i2_CursorAInicio                                     0     0      0     174
                    i2_DireccionaLCD
 ---------------------------------------------------------------------------------
 (12) i2_DireccionaLCD                                     1     1      0     174
                                              4 COMRAM     1     1      0
                        i2_EnviaDato
                      i2_HabilitaLCD
                       i2_RetardoLCD
 ---------------------------------------------------------------------------------
 (11) i2_BorraLCD                                          0     0      0     145
                        i2_EnviaDato
                      i2_HabilitaLCD
                       i2_RetardoLCD
 ---------------------------------------------------------------------------------
 (10) i2_EscribeLCD_c                                      1     1      0     174
                                              4 COMRAM     1     1      0
                        i2_EnviaDato
                      i2_HabilitaLCD
                       i2_RetardoLCD
 ---------------------------------------------------------------------------------
 (11) i2_EnviaDato                                         2     2      0     116
                                              2 COMRAM     2     2      0
                      i2_HabilitaLCD
                       i2_RetardoLCD
 ---------------------------------------------------------------------------------
 (11) i2_RetardoLCD                                        2     2      0      29
                                              0 COMRAM     2     2      0
 ---------------------------------------------------------------------------------
 (11) i2_HabilitaLCD                                       0     0      0       0
 ---------------------------------------------------------------------------------
 Estimated maximum stack depth 12
 ---------------------------------------------------------------------------------

 Call Graph Graphs:

 _main (ROOT)
   _Bienvenida
     _ConfiguraLCD
     _CrearCaracter
       _DireccionaLCD
         _EnviaDato
           _HabilitaLCD
           _RetardoLCD
         _HabilitaLCD
         _RetardoLCD
       _EnviaDato
       _HabilitaLCD
       _RetardoLCD
     _DesplazaPantallaD
       _EnviaDato
       _HabilitaLCD
       _RetardoLCD
     _DireccionaLCD
     _EscribeLCD_c
       _EnviaDato
       _HabilitaLCD
       _RetardoLCD
     _InicializaLCD
       _BorraLCD
         _EnviaDato
         _HabilitaLCD
         _RetardoLCD
       _EnviaDato
       _HabilitaLCD
       _RetardoLCD
     _MensajeLCD_Var
       _EscribeLCD_c
     _OcultarCursor
       _ComandoLCD
         _BorraLCD
         _CursorAInicio
           _DireccionaLCD
         _EnviaDato
         _HabilitaLCD
         _RetardoLCD
   _BorraLCD
   _ConfigVariables
   _DireccionaLCD
   _EscribeLCD_n8
     _EnviaDato
     _HabilitaLCD
     _RetardoLCD
     ___lbdiv
       ___lbmod (ARG)
     ___lbmod
   _MensajeLCD_Var
   _OcultarCursor
   _PreguntaAlUsuario
     _BorraLCD
     _CrearCaracter
     _DireccionaLCD
     _EscribeLCD_c
     _MensajeLCD_Var
     _MostrarCursor
       _ComandoLCD
     _OcultarCursor

 _ISR (ROOT)
   _Borrar
     i2_DireccionaLCD
       i2_EnviaDato
         i2_HabilitaLCD
         i2_RetardoLCD
       i2_HabilitaLCD
       i2_RetardoLCD
     i2_EscribeLCD_c
       i2_EnviaDato
       i2_HabilitaLCD
       i2_RetardoLCD
     i2_MostrarCursor
       i2_ComandoLCD
         i2_BorraLCD
           i2_EnviaDato
           i2_HabilitaLCD
           i2_RetardoLCD
         i2_CursorAInicio
           i2_DireccionaLCD
         i2_EnviaDato
         i2_HabilitaLCD
         i2_RetardoLCD
   _ConfigPregunta
     i2_EscribeLCD_n8
       i2_EnviaDato
       i2_HabilitaLCD
       i2_RetardoLCD
       i2___lbdiv
         i2___lbmod (ARG)
       i2___lbmod
     i2_OcultarCursor
       i2_ComandoLCD
   _Conversion
   ___lwdiv
   _printf
     ___lwdiv
     ___lwmod
       ___lwdiv (ARG)
     _putch
   i2_BorraLCD
   i2_DireccionaLCD
   i2_EscribeLCD_n8
   i2_MensajeLCD_Var
     i2_EscribeLCD_c
   i2_OcultarCursor

Address spaces:
Name               Size   Autos  Total    Usage
BIGRAM            2047      0       0      0.0%
BITBANK7           256      0       0      0.0%
BANK7              256      0       0      0.0%
BITBANK6           256      0       0      0.0%
BANK6              256      0       0      0.0%
BITBANK5           256      0       0      0.0%
BANK5              256      0       0      0.0%
BITBANK4           256      0       0      0.0%
BANK4              256      0       0      0.0%
BITBANK3           256      0       0      0.0%
BANK3              256      0       0      0.0%
BITBANK2           256      0       0      0.0%
BANK2              256      0       0      0.0%
BITBANK1           256      0       0      0.0%
BANK1              256      0       0      0.0%
BITBANK0           160      0       0      0.0%
BANK0              160     15      15      9.4%
BITCOMRAM           94      0       0      0.0%
COMRAM              94     34      70     74.5%
BITBIGSFRh          82      0       0      0.0%
BITBIGSFRlh         43      0       0      0.0%
BITBIGSFRll         33      0       0      0.0%
STACK                0      0       0      0.0%
DATA                 0      0      85      0.0%


Microchip Technology PIC18 Macro Assembler V2.50 build 20240725155939 
Symbol Table                                                                                   Fri Dec 12 22:11:01 2025

          i2DireccionaLCD@a 0005            i2EscribeLCD_n8@a 000D            i2EscribeLCD_n8@b 0009  
                EnviaDato@a 0063               _InicializaLCD 132C                         l420 12D2  
                       l309 0E9C                         l418 1320                         _GIE 7F97  
                       _RC1 7C11                         _RB4 7C0C                         _RB5 7C0D  
                       _RB6 7C0E                         _RB7 7C0F                         _ISR 0008  
                       _POR 7E81                         wreg 0FE8                        ?_ISR 0001  
          ??i2_EscribeLCD_c 0005                        l3310 142E                        l3312 1442  
                      l3320 1468                        l3314 1454                        l3316 145E  
                      l3332 15C6                        l3408 137A                        l3360 17D6  
                      l3504 177E                        l3442 1682                        l3428 13B2  
                      l3364 17E6                        l3508 1786                        l3524 187A  
                      l3516 1862                        l3532 0FF2                        l3470 13F2  
                      l3438 1666                        l3616 1248                        l3538 1012  
                      l3388 133E                        l3492 1762                        l3548 105A  
                      l3564 10C2                        l3644 12B6                        l3398 135C  
                      l3830 0DD0                        l3806 0D76                        l3496 1768  
                      l3826 0DC4                        l3836 0DE6                        l3780 0CFA  
                      l3790 0D38                        l3880 0E74                        l3872 0E5A  
                      l3786 0D1C                        l3884 0E82                        l3876 0E66  
                      l3868 0E4E                        l3888 0E92                        l3898 0EC4  
                      _ADON 7E10                        STR_1 0883            ?i2_OcultarCursor 0001  
                      STR_2 0869                        STR_3 0890                        STR_4 089D  
                      STR_5 08AA                        STR_6 08C2                        STR_7 082F  
                      STR_8 083F                        STR_9 0876                        u2310 1420  
                      _LATB 0F8A                        _LATD 0F8C                        _LATE 0F8D  
                      u2250 18C0                        u2330 176C                        u2360 1276  
                      u2440 0DE2                        u2390 12D2                        u2607 0E3A  
                      u2617 0EBC                        u2707 1994                        u2627 130C  
                      u2637 1232                        u2647 1254                        u2567 0CB4  
                      u2657 1436                        u2577 0D28                        u2667 1444  
                      u2587 0D92                        _PEIE 7F96                        u2677 144C  
                      u2597 0E0E                        u2687 1456                        _RBIE 7F93  
                      _RBIF 7F90                        u2697 1460                        _RCIE 7CED  
                      _RCIF 7CF5                        _RBPU 7F8F                        _TMR0 0FD6  
                      _TMR1 0FCE                        _TRMT 7D61              ??_EscribeLCD_c 0064  
                      _main 0C34                        fsr2h 0FDA                        indf2 0FDF  
                      fsr1l 0FE1                        fsr2l 0FD9                        btemp 0047  
                _Bienvenida 11C0                        prodh 0FF4                        prodl 0FF3  
                      start 000E               _pulsadorListo 0046              CrearCaracter@i 0067  
              ___param_bank 0000                       ??_ISR 0017             i2_DireccionaLCD 1916  
         ??i2_EscribeLCD_n8 000A              ?_InicializaLCD 0001                       ?_main 0001  
           __end_of___lbdiv 178A                       _ADRES 0FC3                       STR_10 084E  
                     STR_11 080B                       STR_12 0876                       STR_13 084E  
                     STR_14 085C                       STR_15 08B6                       STR_16 081E  
                     STR_17 08D7                       STR_18 08CD                  _ComandoLCD 17C2  
             EscribeLCD_c@a 0064             __end_of___lbmod 1882             i2_MostrarCursor 19D8  
                     _T0CON 0FD5                       _T1CON 0FCD                       _LATA1 7C49  
                     _LATA2 7C4A                       _LATA3 7C4B                       _LATA4 7C4C  
                     _LATA5 7C4D                       _LATC2 7C5A             __end_of___lwdiv 1588  
           __end_of___lwmod 165C                       i2l403 0C10                       i2l331 09CE  
                     i2l324 090C                       i2l343 0A2C                       i2l352 0A52  
                     i2l328 0948                       i2l361 0A82                       i2l380 0AEC  
                     i2l372 0ACE                       i2l437 18D4                       i2l381 0BFC  
                     i2l365 0A98                       i2l357 0A72                       i2l367 0AA0  
                     i2l359 0A7A                       i2l384 0B38                       i2l376 0ADC  
                     i2l369 0AA8                       i2l378 0AE4                       i2l459 0EEA  
                     i2l387 0B40                       i2l389 0BEC                       i2l958 157E  
                     i2l968 1652                       _RCREG 0FAE                       _RCSTA 0FAB  
                     _SPBRG 0FAF                       _PORTB 0F81                       _TRISB 0F93  
                     _TRISD 0F95                       _TRISE 0F96                       _TXREG 0FAD  
                     _TXSTA 0FAC                       _Marco 0036             ??_EscribeLCD_n8 0069  
   __end_of_ConfigVariables 1716             __end_of_dpowers 080B                 ?i2_BorraLCD 0001  
                     _putch 19AC                       tablat 0FF5                  _Conversion 18C6  
               _HabilitaLCD 1990                       ttemp5 0048                       ttemp6 004B  
                     ttemp7 004F                       status 0FD8                       wtemp8 0048  
             i2___lbmod@rem 0004             ___lbdiv@divisor 0064             ___lbdiv@counter 0066  
          __end_of_BorraLCD 1956             __initialization 1716                __end_of_main 0ED4  
             _CursorAInicio 19C8            i2_MensajeLCD_Var 169C                      ??_main 006D  
      __end_of_ConfiguraLCD 18C6               __activetblptr 0002       __end_of_CrearCaracter 1428  
                    _ADCON0 0FC2                      _ADCON1 0FC1                      _ADCON2 0FC0  
            DireccionaLCD@a 0064              EscribeLCD_n8@a 006C              EscribeLCD_n8@b 0068  
                    ?_putch 0001                      i2l1520 19AE                      i2l3202 0A8C  
                    i2l3106 094A                      i2l2404 1808                      i2l2420 179A  
                    i2l3116 0968                      i2l3230 0AD0                      i2l3126 0986  
                    i2l2360 1510                      i2l2408 1818                      i2l2432 17B6  
                    i2l2424 17A0                      i2l2354 14E4                      i2l3162 0A20  
                    i2l2356 14F4                      i2l2364 151A                      i2l2436 17BE  
                    i2l2452 18A2                      i2l2444 188A                      i2l2604 1146  
                    i2l2620 11AA                      i2l2358 1506                      i2l3190 0A6C  
                    i2l3158 0A14                      i2l2376 160C                      i2l2800 0FC8  
                    i2l3248 0AF6                      i2l2546 154C                      i2l3290 0BDE  
                    i2l3282 0BC0                      i2l3274 0BA6                      i2l3258 0B32  
                    i2l2812 14A4                      i2l2548 1554                      i2l2822 14DC  
                    i2l2558 1574                      i2l2574 1648                      i2l2566 1628  
                    i2l3286 0BCE                      i2l3278 0BB2                      i2l2568 1630  
                    i2l2594 1100                      i2l2842 16A6                      i2l3298 0C00  
                    i2l2588 10E0                      i2l2782 0F3A                      i2l2766 0F14  
                    i2l2758 0EDA                      i2l2846 16C0                      i2l2776 0F36  
                    i2l2794 0F78                      i2l2796 0F7E              _piezasObjetivo 0025  
                    _TMR0IE 7F95                      _TMR0IF 7F92                      _TMR1IE 7CE8  
                    _TMR1IF 7CF0                      _TMR0ON 7EAF                      _TMR1ON 7E68  
                    _TRISA1 7C91                      _TRISA2 7C92                      _TRISA3 7C93  
                    _TRISA4 7C94                      _TRISC1 7CA1                      _TRISA5 7C95  
                    _TRISC2 7CA2                      _TRISC6 7CA6                      _TRISC7 7CA7  
     __end_of_DireccionaLCD 1916                  _RetardoLCD 1428                 ?_Bienvenida 0001  
                    _Borrar 182A     __end_ofi2_DireccionaLCD 192C       __end_of_MostrarCursor 19C0  
      EscribeLCD_n8@centena 0069              ?_CursorAInicio 0001     __end_ofi2_MostrarCursor 19E0  
                 ??___lbdiv 0065                   ??___lbmod 0061                   ??___lwdiv 0005  
                 ??___lwmod 000C             ??_InicializaLCD 0064                      clear_0 173C  
                    _rxByte 002F                      isa$std 0001                      _printf 0ED4  
      __end_of_EscribeLCD_c 18FC                 ?_ComandoLCD 0001                ?i2_EnviaDato 0001  
              __pdataCOMRAM 0035           __end_ofi2___lbdiv 17C2           __end_ofi2___lbmod 18AA  
              __mediumconst 0000                      tblptrh 0FF7                      tblptrl 0FF6  
                    tblptru 0FF8            ?_ConfigVariables 0001            ___lbdiv@dividend 0065  
      _indiceDigitoObjetivo 0034                 ?_Conversion 0001             ___lbmod@divisor 0060  
     __end_ofi2_HabilitaLCD 19AC                  __accesstop 0060     __end_of__initialization 1742  
           ___lbmod@counter 0062               ___rparam_used 0001  CrearCaracter@posicionCGRAM 0066  
            __pcstackCOMRAM 0001           __end_of_EnviaDato 15D4               __end_of_putch 19B8  
          ___lbdiv@quotient 0067                   ?_BorraLCD 0001                  _decenasRGB 0027  
            _MensajeLCD_Var 165C                     ??_putch 0001             MensajeLCD_Var@a 0065  
           MensajeLCD_Var@i 0067           ??i2_CursorAInicio 0006                  __pnvCOMRAM 0046  
               ?_RetardoLCD 0001                 RetardoLCD@a 0061                     ?_Borrar 0001  
           i2_EscribeLCD_n8 10DA             ??_CursorAInicio 0065            ?i2_DireccionaLCD 0001  
      CrearCaracter@arreglo 0065            ?i2_MostrarCursor 0001                     _BAUDCON 0FB8  
                   ?_printf 000D                     _GO_DONE 7E11      __end_of_MensajeLCD_Var 169C  
              ??i2_BorraLCD 0005                  ??_BorraLCD 0064               _OcultarCursor 19C0  
  __end_ofi2_MensajeLCD_Var 16DA            _paradaEmergencia 002E                ?_HabilitaLCD 0001  
              _ConfiguraLCD 18AA                     __Hparam 0000       i2EscribeLCD_n8@decena 000B  
                   __Lparam 0000                     ___lbdiv 1750                     ___lbmod 1858  
     i2EscribeLCD_n8@unidad 000C                     ___lwdiv 1536                     ___lwmod 161A  
              __psmallconst 0800          __end_ofi2_BorraLCD 197E                     __pcinit 1716  
                   __ramtop 0800                     __ptext0 0C34                     __ptext1 1278  
                   __ptext2 19B8                     __ptext3 0FEC                     __ptext4 1858  
                   __ptext5 1750                     __ptext6 16DA                     __ptext7 11C0  
                   __ptext8 19C0                     __ptext9 17C2               ?i2_ComandoLCD 0001  
                   _dpowers 0801             ?_MensajeLCD_Var 0065              ?_OcultarCursor 0001  
     __end_of_EscribeLCD_n8 10DA                  _teclaLeida 0031              __pintcode_body 08DE  
      end_of_initialization 1742     __end_ofi2_EscribeLCD_n8 11C0             Conversion@canal 0003  
             __Lmediumconst 0000                     int_func 08DE                _EscribeLCD_c 18E2  
                _ordenMotor 002D                ??_Bienvenida 0069                   _RCSTAbits 0FAB  
                   printf@c 0016                     printf@f 000D                     postdec1 0FE5  
                   postdec2 0FDD                     postinc0 0FEE                     postinc2 0FDE  
            ??i2_ComandoLCD 0006                ??_ComandoLCD 0065              _ConfigPregunta 1486  
          ___lbmod@dividend 0061          __end_of_Bienvenida 1278             i2EscribeLCD_c@a 0005  
                 i2___lbdiv 178A                   i2___lbmod 1882                ??_Conversion 0003  
               ___lbmod@rem 0063               i2ComandoLCD@a 0006            _flagConteoActivo 0032  
             ?i2_RetardoLCD 0001          __end_of_ComandoLCD 17F8              __end_of_Borrar 1858  
         ??i2_OcultarCursor 0007               __pidataCOMRAM 197E       __end_of_InicializaLCD 13C8  
    __end_of_ConfigPregunta 14E0          __end_of_Conversion 18E2                   _EnviaDato 1588  
            __end_of_printf 0FEC             i2_CursorAInicio 19E0             ??_OcultarCursor 0066  
       start_initialization 1716                 __end_of_ISR 0C34                  ?i2___lbdiv 0005  
                ?i2___lbmod 0001            ?i2_EscribeLCD_n8 0009              ??i2_RetardoLCD 0001  
              ??_RetardoLCD 0060          i2___lbdiv@dividend 0006                    ??_Borrar 0007  
       EscribeLCD_n8@decena 006A         EscribeLCD_n8@unidad 006B                    ??_printf 0010  
           ?_ConfigPregunta 0001                  ?_EnviaDato 0001                 __pbssCOMRAM 0023  
        __end_of_RetardoLCD 1486               __pcstackBANK0 0060               _CrearCaracter 13C8  
        i2___lbdiv@quotient 0008           ?i2_MensajeLCD_Var 0006        __end_ofi2_ComandoLCD 182A  
        ??i2_MensajeLCD_Var 0007               _DireccionaLCD 18FC              i2_EscribeLCD_c 192C  
          ___lwdiv@dividend 0001               _MostrarCursor 19B8       __end_of_CursorAInicio 19D0  
                 __pintcode 0008                    ?___lbdiv 0064                    ?___lbmod 0060  
   __end_ofi2_CursorAInicio 19E8                    ?___lwdiv 0001                    ?___lwmod 0008  
          ??_MensajeLCD_Var 0066                 __smallconst 0800              ?_CrearCaracter 0065  
          ___lwdiv@quotient 0005                 ??i2___lbdiv 0006           _PreguntaAlUsuario 1278  
               ??i2___lbmod 0002       _piezasTotalesContadas 002B          ?_PreguntaAlUsuario 0001  
             i2_HabilitaLCD 199E              ?_DireccionaLCD 0001      __end_ofi2_EscribeLCD_c 1942  
                  i2u121_40 17A4                    i2u131_40 1558                    i2u134_40 1634  
                  i2u144_40 0F66         ??_PreguntaAlUsuario 0069                    i2u146_40 0FD0  
                  i2u218_40 0BF8                    i2u219_45 0BFA                    i2u173_40 0920  
                  i2u182_40 099C                    i2u271_47 0C06                    i2u184_40 09E4  
                  i2u176_40 0960                    i2u272_47 14EA                    i2u185_45 09E6  
                  i2u273_47 14F6                    i2u274_47 14FE                    i2u187_40 0A10  
                  i2u179_40 097E                    i2u275_47 1508                    i2u188_40 0A1C  
            ?_MostrarCursor 0001                    i2u276_47 1512                    i2u277_47 19A2  
         ??_ConfigVariables 0060        _segundosSinActividad 0030               ??i2_EnviaDato 0003  
      __end_ofi2_RetardoLCD 1536                 ??_EnviaDato 0062                  printf@flag 0012  
                printf@prec 0013   __end_of_PreguntaAlUsuario 132C                    _BorraLCD 1942  
                 copy_data0 172A              ?i2_HabilitaLCD 0001                    _Estrella 003E  
         _DesplazaPantallaD 1956             ?i2_EscribeLCD_c 0001             i2_OcultarCursor 19D0  
                  __Hrparam 0000          ?_DesplazaPantallaD 0001           i2___lbdiv@divisor 0005  
    i2EscribeLCD_n8@centena 000A                 Bienvenida@i 006B           i2___lbdiv@counter 0007  
                  __Lrparam 0000            ?i2_CursorAInicio 0001         ??_DesplazaPantallaD 0064  
              i2EnviaDato@a 0004                    _adcValor 0023             ??_CrearCaracter 0067  
             ConfiguraLCD@a 0060           ??i2_DireccionaLCD 0005             ___lwdiv@divisor 0003  
           ___lwdiv@counter 0007                    __ptext10 19C8                    __ptext11 165C  
                  __ptext20 1990                    __ptext12 18E2                    __ptext21 18AA  
                  __ptext13 132C                    __ptext30 19D0                    __ptext14 1942  
                  __ptext31 10DA                    __ptext23 169C                    __ptext15 1956  
                  __ptext40 192C                    __ptext32 1882                    __ptext24 0ED4  
                  __ptext16 13C8                    __ptext41 15D4                    __ptext33 178A  
                  __ptext25 19AC                    __ptext17 18FC                    __ptext42 14E0  
                  __ptext34 182A                    __ptext26 161A                    __ptext18 1588  
                  __ptext43 199E                    __ptext35 19D8                    __ptext27 1536  
                  __ptext19 1428                    __ptext36 17F8                    __ptext28 18C6  
                  __ptext37 19E0                    __ptext29 1486                    __ptext38 1916  
                  __ptext39 196A         __end_ofi2_EnviaDato 161A           ??i2_MostrarCursor 0007  
        i2___lbmod@dividend 0002             ??_DireccionaLCD 0064   __end_of_DesplazaPantallaD 196A  
                  _interfaz 0035             ??_MostrarCursor 0066                    isa$xinst 0000  
          ??_ConfigPregunta 000E                    int$flags 0047                   printf@val 0014  
              i2_ComandoLCD 17F8                   putch@data 0001       __end_of_OcultarCursor 19C8  
             _EscribeLCD_n8 0FEC     __end_ofi2_OcultarCursor 19D8             ??i2_HabilitaLCD 0001  
                  intlevel2 0000               ??_HabilitaLCD 0060                 ComandoLCD@a 0065  
          ___lwmod@dividend 0008               ?_ConfiguraLCD 0001           i2___lbmod@divisor 0001  
         i2___lbmod@counter 0003               i2RetardoLCD@a 0002         _modoEdicionObjetivo 0033  
                  printf@ap 0011                 i2_EnviaDato 15D4             ___lwmod@divisor 000A  
           ___lwmod@counter 000C              ?_EscribeLCD_n8 0068                  i2_BorraLCD 196A  
              _unidades7Seg 0029              ??_ConfiguraLCD 0060               ?_EscribeLCD_c 0001  
           _ConfigVariables 16DA           i2MensajeLCD_Var@a 0006           i2MensajeLCD_Var@i 0008  
              i2_RetardoLCD 14E0         __end_of_HabilitaLCD 199E  
